
main.elf:     file format elf32-littleriscv


Disassembly of section .text:

41000000 <_bootstrap>:
41000000:	00069117          	auipc	sp,0x69
41000004:	94c10113          	addi	sp,sp,-1716 # 4106894c <_end>
41000008:	4d5020ef          	jal	ra,41002cdc <main>

4100000c <spin>:
4100000c:	0000006f          	j	4100000c <spin>

41000010 <acquire>:
41000010:	00100293          	li	t0,1

41000014 <again>:
41000014:	00052303          	lw	t1,0(a0)
41000018:	fe031ee3          	bnez	t1,41000014 <again>
4100001c:	0c55232f          	amoswap.w.aq	t1,t0,(a0)
41000020:	fe031ae3          	bnez	t1,41000014 <again>
41000024:	00008067          	ret

41000028 <release>:
41000028:	0a05202f          	amoswap.w.rl	zero,zero,(a0)
4100002c:	00008067          	ret

41000030 <sys_switch>:
41000030:	00152023          	sw	ra,0(a0)
41000034:	00252223          	sw	sp,4(a0)
41000038:	00852423          	sw	s0,8(a0)
4100003c:	00952623          	sw	s1,12(a0)
41000040:	01252823          	sw	s2,16(a0)
41000044:	01352a23          	sw	s3,20(a0)
41000048:	01452c23          	sw	s4,24(a0)
4100004c:	01552e23          	sw	s5,28(a0)
41000050:	03652023          	sw	s6,32(a0)
41000054:	03752223          	sw	s7,36(a0)
41000058:	03852423          	sw	s8,40(a0)
4100005c:	03952623          	sw	s9,44(a0)
41000060:	03a52823          	sw	s10,48(a0)
41000064:	03b52a23          	sw	s11,52(a0)
41000068:	0005a083          	lw	ra,0(a1)
4100006c:	0045a103          	lw	sp,4(a1)
41000070:	0085a403          	lw	s0,8(a1)
41000074:	00c5a483          	lw	s1,12(a1)
41000078:	0105a903          	lw	s2,16(a1)
4100007c:	0145a983          	lw	s3,20(a1)
41000080:	0185aa03          	lw	s4,24(a1)
41000084:	01c5aa83          	lw	s5,28(a1)
41000088:	0205ab03          	lw	s6,32(a1)
4100008c:	0245ab83          	lw	s7,36(a1)
41000090:	0285ac03          	lw	s8,40(a1)
41000094:	02c5ac83          	lw	s9,44(a1)
41000098:	0305ad03          	lw	s10,48(a1)
4100009c:	0345ad83          	lw	s11,52(a1)
410000a0:	00008067          	ret

410000a4 <emit_word>:
410000a4:	00452783          	lw	a5,4(a0)
410000a8:	00852703          	lw	a4,8(a0)
410000ac:	00e7f7b3          	and	a5,a5,a4
410000b0:	00052703          	lw	a4,0(a0)
410000b4:	ffc7f793          	andi	a5,a5,-4
410000b8:	00f707b3          	add	a5,a4,a5
410000bc:	00b7a023          	sw	a1,0(a5)
410000c0:	00452783          	lw	a5,4(a0)
410000c4:	00478793          	addi	a5,a5,4
410000c8:	00852703          	lw	a4,8(a0)
410000cc:	00e7f7b3          	and	a5,a5,a4
410000d0:	00f52223          	sw	a5,4(a0)
410000d4:	00008067          	ret

410000d8 <_puts>:
410000d8:	0100006f          	j	410000e8 <_puts+0x10>
410000dc:	00150513          	addi	a0,a0,1
410000e0:	82000737          	lui	a4,0x82000
410000e4:	00f70023          	sb	a5,0(a4) # 82000000 <_end+0x40f976b4>
410000e8:	00054783          	lbu	a5,0(a0)
410000ec:	fe0798e3          	bnez	a5,410000dc <_puts+0x4>
410000f0:	00008067          	ret

410000f4 <delay>:
410000f4:	00000793          	li	a5,0
410000f8:	0100006f          	j	41000108 <delay+0x14>
410000fc:	82000737          	lui	a4,0x82000
41000100:	00070023          	sb	zero,0(a4) # 82000000 <_end+0x40f976b4>
41000104:	00178793          	addi	a5,a5,1
41000108:	00a51713          	slli	a4,a0,0xa
4100010c:	fee7e8e3          	bltu	a5,a4,410000fc <delay+0x8>
41000110:	00008067          	ret

41000114 <dma_transfer>:
41000114:	650007b7          	lui	a5,0x65000
41000118:	00c7a783          	lw	a5,12(a5) # 6500000c <_end+0x23f976c0>
4100011c:	fe079ce3          	bnez	a5,41000114 <dma_transfer>
41000120:	650007b7          	lui	a5,0x65000
41000124:	00a7a023          	sw	a0,0(a5) # 65000000 <_end+0x23f976b4>
41000128:	00b7a223          	sw	a1,4(a5)
4100012c:	00c7a423          	sw	a2,8(a5)
41000130:	00100713          	li	a4,1
41000134:	00e7a823          	sw	a4,16(a5)
41000138:	00008067          	ret

4100013c <_itoa_10>:
4100013c:	fc010113          	addi	sp,sp,-64
41000140:	00050693          	mv	a3,a0
41000144:	00012023          	sw	zero,0(sp)
41000148:	00012223          	sw	zero,4(sp)
4100014c:	00012423          	sw	zero,8(sp)
41000150:	00012623          	sw	zero,12(sp)
41000154:	00012823          	sw	zero,16(sp)
41000158:	00012a23          	sw	zero,20(sp)
4100015c:	00012c23          	sw	zero,24(sp)
41000160:	00012e23          	sw	zero,28(sp)
41000164:	02012023          	sw	zero,32(sp)
41000168:	02012223          	sw	zero,36(sp)
4100016c:	02012423          	sw	zero,40(sp)
41000170:	02012623          	sw	zero,44(sp)
41000174:	02012823          	sw	zero,48(sp)
41000178:	02012a23          	sw	zero,52(sp)
4100017c:	02012c23          	sw	zero,56(sp)
41000180:	02012e23          	sw	zero,60(sp)
41000184:	00054863          	bltz	a0,41000194 <_itoa_10+0x58>
41000188:	02050263          	beqz	a0,410001ac <_itoa_10+0x70>
4100018c:	00058513          	mv	a0,a1
41000190:	0100006f          	j	410001a0 <_itoa_10+0x64>
41000194:	00158513          	addi	a0,a1,1
41000198:	02d00793          	li	a5,45
4100019c:	00f58023          	sb	a5,0(a1)
410001a0:	00000713          	li	a4,0
410001a4:	00010613          	mv	a2,sp
410001a8:	03c0006f          	j	410001e4 <_itoa_10+0xa8>
410001ac:	03000793          	li	a5,48
410001b0:	00f58023          	sb	a5,0(a1)
410001b4:	00058513          	mv	a0,a1
410001b8:	0580006f          	j	41000210 <_itoa_10+0xd4>
410001bc:	41f6d593          	srai	a1,a3,0x1f
410001c0:	00d5c7b3          	xor	a5,a1,a3
410001c4:	40b787b3          	sub	a5,a5,a1
410001c8:	00a00593          	li	a1,10
410001cc:	02b7e7b3          	rem	a5,a5,a1
410001d0:	03078793          	addi	a5,a5,48
410001d4:	00f60023          	sb	a5,0(a2)
410001d8:	02b6c6b3          	div	a3,a3,a1
410001dc:	00170713          	addi	a4,a4,1
410001e0:	00160613          	addi	a2,a2,1
410001e4:	fc069ce3          	bnez	a3,410001bc <_itoa_10+0x80>
410001e8:	fff70793          	addi	a5,a4,-1
410001ec:	01c0006f          	j	41000208 <_itoa_10+0xcc>
410001f0:	04010713          	addi	a4,sp,64
410001f4:	00f70733          	add	a4,a4,a5
410001f8:	fc074703          	lbu	a4,-64(a4)
410001fc:	00e50023          	sb	a4,0(a0)
41000200:	fff78793          	addi	a5,a5,-1
41000204:	00150513          	addi	a0,a0,1
41000208:	fe07d4e3          	bgez	a5,410001f0 <_itoa_10+0xb4>
4100020c:	00050023          	sb	zero,0(a0)
41000210:	04010113          	addi	sp,sp,64
41000214:	00008067          	ret

41000218 <_itoa_10_pad>:
41000218:	fc010113          	addi	sp,sp,-64
4100021c:	00012023          	sw	zero,0(sp)
41000220:	00012223          	sw	zero,4(sp)
41000224:	00012423          	sw	zero,8(sp)
41000228:	00012623          	sw	zero,12(sp)
4100022c:	00012823          	sw	zero,16(sp)
41000230:	00012a23          	sw	zero,20(sp)
41000234:	00012c23          	sw	zero,24(sp)
41000238:	00012e23          	sw	zero,28(sp)
4100023c:	02012023          	sw	zero,32(sp)
41000240:	02012223          	sw	zero,36(sp)
41000244:	02012423          	sw	zero,40(sp)
41000248:	02012623          	sw	zero,44(sp)
4100024c:	02012823          	sw	zero,48(sp)
41000250:	02012a23          	sw	zero,52(sp)
41000254:	02012c23          	sw	zero,56(sp)
41000258:	02012e23          	sw	zero,60(sp)
4100025c:	00054863          	bltz	a0,4100026c <_itoa_10_pad+0x54>
41000260:	02050863          	beqz	a0,41000290 <_itoa_10_pad+0x78>
41000264:	00000893          	li	a7,0
41000268:	00c0006f          	j	41000274 <_itoa_10_pad+0x5c>
4100026c:	40a00533          	neg	a0,a0
41000270:	00100893          	li	a7,1
41000274:	00000793          	li	a5,0
41000278:	00010693          	mv	a3,sp
4100027c:	0400006f          	j	410002bc <_itoa_10_pad+0xa4>
41000280:	03000793          	li	a5,48
41000284:	00f58023          	sb	a5,0(a1)
41000288:	00150513          	addi	a0,a0,1
4100028c:	00158593          	addi	a1,a1,1
41000290:	fec548e3          	blt	a0,a2,41000280 <_itoa_10_pad+0x68>
41000294:	00058023          	sb	zero,0(a1)
41000298:	00058513          	mv	a0,a1
4100029c:	0840006f          	j	41000320 <_itoa_10_pad+0x108>
410002a0:	00a00813          	li	a6,10
410002a4:	03056733          	rem	a4,a0,a6
410002a8:	03070713          	addi	a4,a4,48
410002ac:	00e68023          	sb	a4,0(a3)
410002b0:	03054533          	div	a0,a0,a6
410002b4:	00178793          	addi	a5,a5,1
410002b8:	00168693          	addi	a3,a3,1
410002bc:	fe0512e3          	bnez	a0,410002a0 <_itoa_10_pad+0x88>
410002c0:	00078713          	mv	a4,a5
410002c4:	00c7d463          	bge	a5,a2,410002cc <_itoa_10_pad+0xb4>
410002c8:	00060713          	mv	a4,a2
410002cc:	00088863          	beqz	a7,410002dc <_itoa_10_pad+0xc4>
410002d0:	02d00693          	li	a3,45
410002d4:	00d58023          	sb	a3,0(a1)
410002d8:	00158593          	addi	a1,a1,1
410002dc:	40f70733          	sub	a4,a4,a5
410002e0:	0140006f          	j	410002f4 <_itoa_10_pad+0xdc>
410002e4:	03000693          	li	a3,48
410002e8:	00d58023          	sb	a3,0(a1)
410002ec:	fff70713          	addi	a4,a4,-1
410002f0:	00158593          	addi	a1,a1,1
410002f4:	fee048e3          	bgtz	a4,410002e4 <_itoa_10_pad+0xcc>
410002f8:	0180006f          	j	41000310 <_itoa_10_pad+0xf8>
410002fc:	04010713          	addi	a4,sp,64
41000300:	00f70733          	add	a4,a4,a5
41000304:	fc074703          	lbu	a4,-64(a4)
41000308:	00e58023          	sb	a4,0(a1)
4100030c:	00158593          	addi	a1,a1,1
41000310:	fff78793          	addi	a5,a5,-1
41000314:	fe07d4e3          	bgez	a5,410002fc <_itoa_10_pad+0xe4>
41000318:	00058023          	sb	zero,0(a1)
4100031c:	00058513          	mv	a0,a1
41000320:	04010113          	addi	sp,sp,64
41000324:	00008067          	ret

41000328 <_memset>:
41000328:	fe010113          	addi	sp,sp,-32
4100032c:	00112e23          	sw	ra,28(sp)
41000330:	00b12623          	sw	a1,12(sp)
41000334:	00c10593          	addi	a1,sp,12
41000338:	dddff0ef          	jal	ra,41000114 <dma_transfer>
4100033c:	01c12083          	lw	ra,28(sp)
41000340:	02010113          	addi	sp,sp,32
41000344:	00008067          	ret

41000348 <_memcpy>:
41000348:	ff010113          	addi	sp,sp,-16
4100034c:	00112623          	sw	ra,12(sp)
41000350:	dc5ff0ef          	jal	ra,41000114 <dma_transfer>
41000354:	00c12083          	lw	ra,12(sp)
41000358:	01010113          	addi	sp,sp,16
4100035c:	00008067          	ret

41000360 <pal_write_color>:
41000360:	00259793          	slli	a5,a1,0x2
41000364:	810105b7          	lui	a1,0x81010
41000368:	00f585b3          	add	a1,a1,a5
4100036c:	00a5a023          	sw	a0,0(a1) # 81010000 <_end+0x3ffa76b4>
41000370:	00008067          	ret

41000374 <wait_vblank>:
41000374:	810007b7          	lui	a5,0x81000
41000378:	0007a783          	lw	a5,0(a5) # 81000000 <_end+0x3ff976b4>
4100037c:	0107d793          	srli	a5,a5,0x10
41000380:	fe079ae3          	bnez	a5,41000374 <wait_vblank>
41000384:	00008067          	ret

41000388 <swap_fb>:
41000388:	ff010113          	addi	sp,sp,-16
4100038c:	00112623          	sw	ra,12(sp)
41000390:	fe5ff0ef          	jal	ra,41000374 <wait_vblank>
41000394:	0004b637          	lui	a2,0x4b
41000398:	00000593          	li	a1,0
4100039c:	00000513          	li	a0,0
410003a0:	fa9ff0ef          	jal	ra,41000348 <_memcpy>
410003a4:	00c12083          	lw	ra,12(sp)
410003a8:	01010113          	addi	sp,sp,16
410003ac:	00008067          	ret

410003b0 <clear_fb>:
410003b0:	ff010113          	addi	sp,sp,-16
410003b4:	00112623          	sw	ra,12(sp)
410003b8:	00000593          	li	a1,0
410003bc:	fa5ff0ef          	jal	ra,41000360 <pal_write_color>
410003c0:	0004b637          	lui	a2,0x4b
410003c4:	00000593          	li	a1,0
410003c8:	00000513          	li	a0,0
410003cc:	f5dff0ef          	jal	ra,41000328 <_memset>
410003d0:	00c12083          	lw	ra,12(sp)
410003d4:	01010113          	addi	sp,sp,16
410003d8:	00008067          	ret

410003dc <edge_cross>:
410003dc:	fd010113          	addi	sp,sp,-48
410003e0:	00a12c23          	sw	a0,24(sp)
410003e4:	00b12e23          	sw	a1,28(sp)
410003e8:	00c12823          	sw	a2,16(sp)
410003ec:	00d12a23          	sw	a3,20(sp)
410003f0:	00e12423          	sw	a4,8(sp)
410003f4:	00f12623          	sw	a5,12(sp)
410003f8:	40a60633          	sub	a2,a2,a0
410003fc:	02c12423          	sw	a2,40(sp)
41000400:	40b686b3          	sub	a3,a3,a1
41000404:	02d12623          	sw	a3,44(sp)
41000408:	40a70733          	sub	a4,a4,a0
4100040c:	02e12023          	sw	a4,32(sp)
41000410:	40b787b3          	sub	a5,a5,a1
41000414:	02f12223          	sw	a5,36(sp)
41000418:	02f60633          	mul	a2,a2,a5
4100041c:	02e686b3          	mul	a3,a3,a4
41000420:	40d60533          	sub	a0,a2,a3
41000424:	03010113          	addi	sp,sp,48
41000428:	00008067          	ret

4100042c <triangle_fill>:
4100042c:	fb010113          	addi	sp,sp,-80
41000430:	04112623          	sw	ra,76(sp)
41000434:	04812423          	sw	s0,72(sp)
41000438:	04912223          	sw	s1,68(sp)
4100043c:	05212023          	sw	s2,64(sp)
41000440:	03312e23          	sw	s3,60(sp)
41000444:	03412c23          	sw	s4,56(sp)
41000448:	03512a23          	sw	s5,52(sp)
4100044c:	03612823          	sw	s6,48(sp)
41000450:	00a12c23          	sw	a0,24(sp)
41000454:	00b12e23          	sw	a1,28(sp)
41000458:	00c12823          	sw	a2,16(sp)
4100045c:	00d12a23          	sw	a3,20(sp)
41000460:	00e12423          	sw	a4,8(sp)
41000464:	00f12623          	sw	a5,12(sp)
41000468:	00080513          	mv	a0,a6
4100046c:	00100593          	li	a1,1
41000470:	ef1ff0ef          	jal	ra,41000360 <pal_write_color>
41000474:	00812703          	lw	a4,8(sp)
41000478:	01012603          	lw	a2,16(sp)
4100047c:	00070b13          	mv	s6,a4
41000480:	00e65463          	bge	a2,a4,41000488 <triangle_fill+0x5c>
41000484:	00060b13          	mv	s6,a2
41000488:	01812a03          	lw	s4,24(sp)
4100048c:	016a5463          	bge	s4,s6,41000494 <triangle_fill+0x68>
41000490:	000a0b13          	mv	s6,s4
41000494:	00c12783          	lw	a5,12(sp)
41000498:	01412683          	lw	a3,20(sp)
4100049c:	00078493          	mv	s1,a5
410004a0:	00f6d463          	bge	a3,a5,410004a8 <triangle_fill+0x7c>
410004a4:	00068493          	mv	s1,a3
410004a8:	01c12a83          	lw	s5,28(sp)
410004ac:	009ad463          	bge	s5,s1,410004b4 <triangle_fill+0x88>
410004b0:	000a8493          	mv	s1,s5
410004b4:	00c75463          	bge	a4,a2,410004bc <triangle_fill+0x90>
410004b8:	00060713          	mv	a4,a2
410004bc:	00ea5463          	bge	s4,a4,410004c4 <triangle_fill+0x98>
410004c0:	00070a13          	mv	s4,a4
410004c4:	00d7d463          	bge	a5,a3,410004cc <triangle_fill+0xa0>
410004c8:	00068793          	mv	a5,a3
410004cc:	0afad263          	bge	s5,a5,41000570 <triangle_fill+0x144>
410004d0:	00078a93          	mv	s5,a5
410004d4:	09c0006f          	j	41000570 <triangle_fill+0x144>
410004d8:	00140413          	addi	s0,s0,1
410004dc:	09445863          	bge	s0,s4,4100056c <triangle_fill+0x140>
410004e0:	02812423          	sw	s0,40(sp)
410004e4:	02912623          	sw	s1,44(sp)
410004e8:	00040713          	mv	a4,s0
410004ec:	00048793          	mv	a5,s1
410004f0:	00812603          	lw	a2,8(sp)
410004f4:	00c12683          	lw	a3,12(sp)
410004f8:	01012503          	lw	a0,16(sp)
410004fc:	01412583          	lw	a1,20(sp)
41000500:	eddff0ef          	jal	ra,410003dc <edge_cross>
41000504:	00050913          	mv	s2,a0
41000508:	00040713          	mv	a4,s0
4100050c:	00048793          	mv	a5,s1
41000510:	01812603          	lw	a2,24(sp)
41000514:	01c12683          	lw	a3,28(sp)
41000518:	00812503          	lw	a0,8(sp)
4100051c:	00c12583          	lw	a1,12(sp)
41000520:	ebdff0ef          	jal	ra,410003dc <edge_cross>
41000524:	00050993          	mv	s3,a0
41000528:	00040713          	mv	a4,s0
4100052c:	00048793          	mv	a5,s1
41000530:	01012603          	lw	a2,16(sp)
41000534:	01412683          	lw	a3,20(sp)
41000538:	01812503          	lw	a0,24(sp)
4100053c:	01c12583          	lw	a1,28(sp)
41000540:	e9dff0ef          	jal	ra,410003dc <edge_cross>
41000544:	f8094ae3          	bltz	s2,410004d8 <triangle_fill+0xac>
41000548:	f809c8e3          	bltz	s3,410004d8 <triangle_fill+0xac>
4100054c:	f80546e3          	bltz	a0,410004d8 <triangle_fill+0xac>
41000550:	00249793          	slli	a5,s1,0x2
41000554:	009787b3          	add	a5,a5,s1
41000558:	00779793          	slli	a5,a5,0x7
4100055c:	00f407b3          	add	a5,s0,a5
41000560:	00100713          	li	a4,1
41000564:	00e78023          	sb	a4,0(a5)
41000568:	f71ff06f          	j	410004d8 <triangle_fill+0xac>
4100056c:	00148493          	addi	s1,s1,1
41000570:	0154d663          	bge	s1,s5,4100057c <triangle_fill+0x150>
41000574:	000b0413          	mv	s0,s6
41000578:	f65ff06f          	j	410004dc <triangle_fill+0xb0>
4100057c:	04c12083          	lw	ra,76(sp)
41000580:	04812403          	lw	s0,72(sp)
41000584:	04412483          	lw	s1,68(sp)
41000588:	04012903          	lw	s2,64(sp)
4100058c:	03c12983          	lw	s3,60(sp)
41000590:	03812a03          	lw	s4,56(sp)
41000594:	03412a83          	lw	s5,52(sp)
41000598:	03012b03          	lw	s6,48(sp)
4100059c:	05010113          	addi	sp,sp,80
410005a0:	00008067          	ret

410005a4 <put_digit>:
410005a4:	df010113          	addi	sp,sp,-528
410005a8:	20112623          	sw	ra,524(sp)
410005ac:	20812423          	sw	s0,520(sp)
410005b0:	00050413          	mv	s0,a0
410005b4:	20000613          	li	a2,512
410005b8:	00000593          	li	a1,0
410005bc:	00010513          	mv	a0,sp
410005c0:	148040ef          	jal	ra,41004708 <memset>
410005c4:	00010593          	mv	a1,sp
410005c8:	00040513          	mv	a0,s0
410005cc:	b71ff0ef          	jal	ra,4100013c <_itoa_10>
410005d0:	00010513          	mv	a0,sp
410005d4:	b05ff0ef          	jal	ra,410000d8 <_puts>
410005d8:	20c12083          	lw	ra,524(sp)
410005dc:	20812403          	lw	s0,520(sp)
410005e0:	21010113          	addi	sp,sp,528
410005e4:	00008067          	ret

410005e8 <put_digit_pad>:
410005e8:	df010113          	addi	sp,sp,-528
410005ec:	20112623          	sw	ra,524(sp)
410005f0:	20812423          	sw	s0,520(sp)
410005f4:	20912223          	sw	s1,516(sp)
410005f8:	00050413          	mv	s0,a0
410005fc:	00058493          	mv	s1,a1
41000600:	20000613          	li	a2,512
41000604:	00000593          	li	a1,0
41000608:	00010513          	mv	a0,sp
4100060c:	0fc040ef          	jal	ra,41004708 <memset>
41000610:	00048613          	mv	a2,s1
41000614:	00010593          	mv	a1,sp
41000618:	00040513          	mv	a0,s0
4100061c:	bfdff0ef          	jal	ra,41000218 <_itoa_10_pad>
41000620:	00010513          	mv	a0,sp
41000624:	ab5ff0ef          	jal	ra,410000d8 <_puts>
41000628:	20c12083          	lw	ra,524(sp)
4100062c:	20812403          	lw	s0,520(sp)
41000630:	20412483          	lw	s1,516(sp)
41000634:	21010113          	addi	sp,sp,528
41000638:	00008067          	ret

4100063c <put_fixed>:
4100063c:	ff010113          	addi	sp,sp,-16
41000640:	00112623          	sw	ra,12(sp)
41000644:	00812423          	sw	s0,8(sp)
41000648:	00050413          	mv	s0,a0
4100064c:	04054463          	bltz	a0,41000694 <put_fixed+0x58>
41000650:	41045513          	srai	a0,s0,0x10
41000654:	f51ff0ef          	jal	ra,410005a4 <put_digit>
41000658:	41005537          	lui	a0,0x41005
4100065c:	9e850513          	addi	a0,a0,-1560 # 410049e8 <angle+0x8>
41000660:	a79ff0ef          	jal	ra,410000d8 <_puts>
41000664:	01041513          	slli	a0,s0,0x10
41000668:	01055513          	srli	a0,a0,0x10
4100066c:	00002437          	lui	s0,0x2
41000670:	71040413          	addi	s0,s0,1808 # 2710 <STACK_SIZE-0x1d8f0>
41000674:	02850533          	mul	a0,a0,s0
41000678:	00400593          	li	a1,4
4100067c:	01055513          	srli	a0,a0,0x10
41000680:	f69ff0ef          	jal	ra,410005e8 <put_digit_pad>
41000684:	00c12083          	lw	ra,12(sp)
41000688:	00812403          	lw	s0,8(sp)
4100068c:	01010113          	addi	sp,sp,16
41000690:	00008067          	ret
41000694:	41005537          	lui	a0,0x41005
41000698:	9e450513          	addi	a0,a0,-1564 # 410049e4 <angle+0x4>
4100069c:	a3dff0ef          	jal	ra,410000d8 <_puts>
410006a0:	40800433          	neg	s0,s0
410006a4:	fadff06f          	j	41000650 <put_fixed+0x14>

410006a8 <gluPerspective>:
410006a8:	41f65513          	srai	a0,a2,0x1f
410006ac:	01065693          	srli	a3,a2,0x10
410006b0:	01051513          	slli	a0,a0,0x10
410006b4:	00a6e533          	or	a0,a3,a0
410006b8:	01061613          	slli	a2,a2,0x10
410006bc:	0a054663          	bltz	a0,41000768 <gluPerspective+0xc0>
410006c0:	000086b7          	lui	a3,0x8
410006c4:	00d606b3          	add	a3,a2,a3
410006c8:	00c6b633          	sltu	a2,a3,a2
410006cc:	00a60633          	add	a2,a2,a0
410006d0:	01061513          	slli	a0,a2,0x10
410006d4:	0106d693          	srli	a3,a3,0x10
410006d8:	00d566b3          	or	a3,a0,a3
410006dc:	41065613          	srai	a2,a2,0x10
410006e0:	0ac04263          	bgtz	a2,41000784 <gluPerspective+0xdc>
410006e4:	08060e63          	beqz	a2,41000780 <gluPerspective+0xd8>
410006e8:	fff00513          	li	a0,-1
410006ec:	0aa64663          	blt	a2,a0,41000798 <gluPerspective+0xf0>
410006f0:	0aa60063          	beq	a2,a0,41000790 <gluPerspective+0xe8>
410006f4:	41f5d513          	srai	a0,a1,0x1f
410006f8:	41f6d613          	srai	a2,a3,0x1f
410006fc:	02b60633          	mul	a2,a2,a1
41000700:	02d50533          	mul	a0,a0,a3
41000704:	00a60633          	add	a2,a2,a0
41000708:	02b68533          	mul	a0,a3,a1
4100070c:	02b6b333          	mulhu	t1,a3,a1
41000710:	00660333          	add	t1,a2,t1
41000714:	08034663          	bltz	t1,410007a0 <gluPerspective+0xf8>
41000718:	00008637          	lui	a2,0x8
4100071c:	00c50633          	add	a2,a0,a2
41000720:	00a635b3          	sltu	a1,a2,a0
41000724:	006585b3          	add	a1,a1,t1
41000728:	01059513          	slli	a0,a1,0x10
4100072c:	01065613          	srli	a2,a2,0x10
41000730:	00c56633          	or	a2,a0,a2
41000734:	4105d593          	srai	a1,a1,0x10
41000738:	08b04263          	bgtz	a1,410007bc <gluPerspective+0x114>
4100073c:	06058e63          	beqz	a1,410007b8 <gluPerspective+0x110>
41000740:	fff00513          	li	a0,-1
41000744:	08a5c663          	blt	a1,a0,410007d0 <gluPerspective+0x128>
41000748:	08a58063          	beq	a1,a0,410007c8 <gluPerspective+0x120>
4100074c:	00c8a023          	sw	a2,0(a7)
41000750:	40c00633          	neg	a2,a2
41000754:	00c82023          	sw	a2,0(a6)
41000758:	00d7a023          	sw	a3,0(a5)
4100075c:	40d006b3          	neg	a3,a3
41000760:	00d72023          	sw	a3,0(a4)
41000764:	00008067          	ret
41000768:	ffff86b7          	lui	a3,0xffff8
4100076c:	00d606b3          	add	a3,a2,a3
41000770:	00c6b633          	sltu	a2,a3,a2
41000774:	fff50513          	addi	a0,a0,-1
41000778:	00a60633          	add	a2,a2,a0
4100077c:	f55ff06f          	j	410006d0 <gluPerspective+0x28>
41000780:	f606d4e3          	bgez	a3,410006e8 <gluPerspective+0x40>
41000784:	800006b7          	lui	a3,0x80000
41000788:	fff6c693          	not	a3,a3
4100078c:	f69ff06f          	j	410006f4 <gluPerspective+0x4c>
41000790:	80000637          	lui	a2,0x80000
41000794:	f6c6f0e3          	bgeu	a3,a2,410006f4 <gluPerspective+0x4c>
41000798:	800006b7          	lui	a3,0x80000
4100079c:	f59ff06f          	j	410006f4 <gluPerspective+0x4c>
410007a0:	ffff8637          	lui	a2,0xffff8
410007a4:	00c50633          	add	a2,a0,a2
410007a8:	00a63533          	sltu	a0,a2,a0
410007ac:	fff30593          	addi	a1,t1,-1
410007b0:	00b505b3          	add	a1,a0,a1
410007b4:	f75ff06f          	j	41000728 <gluPerspective+0x80>
410007b8:	f80654e3          	bgez	a2,41000740 <gluPerspective+0x98>
410007bc:	80000637          	lui	a2,0x80000
410007c0:	fff64613          	not	a2,a2
410007c4:	f89ff06f          	j	4100074c <gluPerspective+0xa4>
410007c8:	800005b7          	lui	a1,0x80000
410007cc:	f8b670e3          	bgeu	a2,a1,4100074c <gluPerspective+0xa4>
410007d0:	80000637          	lui	a2,0x80000
410007d4:	f79ff06f          	j	4100074c <gluPerspective+0xa4>

410007d8 <glFrustum>:
410007d8:	fd010113          	addi	sp,sp,-48
410007dc:	02112623          	sw	ra,44(sp)
410007e0:	02812423          	sw	s0,40(sp)
410007e4:	02912223          	sw	s1,36(sp)
410007e8:	03212023          	sw	s2,32(sp)
410007ec:	01312e23          	sw	s3,28(sp)
410007f0:	01412c23          	sw	s4,24(sp)
410007f4:	01512a23          	sw	s5,20(sp)
410007f8:	01612823          	sw	s6,16(sp)
410007fc:	01712623          	sw	s7,12(sp)
41000800:	01812423          	sw	s8,8(sp)
41000804:	01912223          	sw	s9,4(sp)
41000808:	01a12023          	sw	s10,0(sp)
4100080c:	00070a13          	mv	s4,a4
41000810:	00078993          	mv	s3,a5
41000814:	00080413          	mv	s0,a6
41000818:	41f75a93          	srai	s5,a4,0x1f
4100081c:	00f75713          	srli	a4,a4,0xf
41000820:	011a9793          	slli	a5,s5,0x11
41000824:	00f767b3          	or	a5,a4,a5
41000828:	011a1813          	slli	a6,s4,0x11
4100082c:	0807cc63          	bltz	a5,410008c4 <glFrustum+0xec>
41000830:	00008937          	lui	s2,0x8
41000834:	01280933          	add	s2,a6,s2
41000838:	01093833          	sltu	a6,s2,a6
4100083c:	00f80833          	add	a6,a6,a5
41000840:	01081793          	slli	a5,a6,0x10
41000844:	01095913          	srli	s2,s2,0x10
41000848:	0127e933          	or	s2,a5,s2
4100084c:	41085813          	srai	a6,a6,0x10
41000850:	09004863          	bgtz	a6,410008e0 <glFrustum+0x108>
41000854:	08080463          	beqz	a6,410008dc <glFrustum+0x104>
41000858:	fff00793          	li	a5,-1
4100085c:	08f84c63          	blt	a6,a5,410008f4 <glFrustum+0x11c>
41000860:	08f80663          	beq	a6,a5,410008ec <glFrustum+0x114>
41000864:	40c68bb3          	sub	s7,a3,a2
41000868:	00c68d33          	add	s10,a3,a2
4100086c:	40a58b33          	sub	s6,a1,a0
41000870:	00a58c33          	add	s8,a1,a0
41000874:	414984b3          	sub	s1,s3,s4
41000878:	013a0cb3          	add	s9,s4,s3
4100087c:	08c68063          	beq	a3,a2,410008fc <glFrustum+0x124>
41000880:	41095793          	srai	a5,s2,0x10
41000884:	01091713          	slli	a4,s2,0x10
41000888:	41fbd693          	srai	a3,s7,0x1f
4100088c:	0176c5b3          	xor	a1,a3,s7
41000890:	40d585b3          	sub	a1,a1,a3
41000894:	41f5d693          	srai	a3,a1,0x1f
41000898:	01f69693          	slli	a3,a3,0x1f
4100089c:	0015d513          	srli	a0,a1,0x1
410008a0:	00a6e533          	or	a0,a3,a0
410008a4:	41f5d593          	srai	a1,a1,0x1f
410008a8:	06094663          	bltz	s2,41000914 <glFrustum+0x13c>
410008ac:	060bc463          	bltz	s7,41000914 <glFrustum+0x13c>
410008b0:	00a70533          	add	a0,a4,a0
410008b4:	00e53733          	sltu	a4,a0,a4
410008b8:	00b785b3          	add	a1,a5,a1
410008bc:	00b705b3          	add	a1,a4,a1
410008c0:	0680006f          	j	41000928 <glFrustum+0x150>
410008c4:	ffff8937          	lui	s2,0xffff8
410008c8:	01280933          	add	s2,a6,s2
410008cc:	01093833          	sltu	a6,s2,a6
410008d0:	fff78793          	addi	a5,a5,-1
410008d4:	00f80833          	add	a6,a6,a5
410008d8:	f69ff06f          	j	41000840 <glFrustum+0x68>
410008dc:	f6095ee3          	bgez	s2,41000858 <glFrustum+0x80>
410008e0:	80000937          	lui	s2,0x80000
410008e4:	fff94913          	not	s2,s2
410008e8:	f7dff06f          	j	41000864 <glFrustum+0x8c>
410008ec:	800007b7          	lui	a5,0x80000
410008f0:	f6f97ae3          	bgeu	s2,a5,41000864 <glFrustum+0x8c>
410008f4:	80000937          	lui	s2,0x80000
410008f8:	f6dff06f          	j	41000864 <glFrustum+0x8c>
410008fc:	00094863          	bltz	s2,4100090c <glFrustum+0x134>
41000900:	80000537          	lui	a0,0x80000
41000904:	fff54513          	not	a0,a0
41000908:	0440006f          	j	4100094c <glFrustum+0x174>
4100090c:	80000537          	lui	a0,0x80000
41000910:	03c0006f          	j	4100094c <glFrustum+0x174>
41000914:	0807ca63          	bltz	a5,410009a8 <glFrustum+0x1d0>
41000918:	40a70533          	sub	a0,a4,a0
4100091c:	00a73733          	sltu	a4,a4,a0
41000920:	40b785b3          	sub	a1,a5,a1
41000924:	40e585b3          	sub	a1,a1,a4
41000928:	000b8613          	mv	a2,s7
4100092c:	41fbd693          	srai	a3,s7,0x1f
41000930:	4ec020ef          	jal	ra,41002e1c <__divdi3>
41000934:	00050713          	mv	a4,a0
41000938:	06b04e63          	bgtz	a1,410009b4 <glFrustum+0x1dc>
4100093c:	06058a63          	beqz	a1,410009b0 <glFrustum+0x1d8>
41000940:	fff00793          	li	a5,-1
41000944:	08f5c263          	blt	a1,a5,410009c8 <glFrustum+0x1f0>
41000948:	06f58c63          	beq	a1,a5,410009c0 <glFrustum+0x1e8>
4100094c:	00a42023          	sw	a0,0(s0)
41000950:	00042223          	sw	zero,4(s0)
41000954:	00042423          	sw	zero,8(s0)
41000958:	00042623          	sw	zero,12(s0)
4100095c:	00042823          	sw	zero,16(s0)
41000960:	060b0863          	beqz	s6,410009d0 <glFrustum+0x1f8>
41000964:	41095793          	srai	a5,s2,0x10
41000968:	01091713          	slli	a4,s2,0x10
4100096c:	41fb5693          	srai	a3,s6,0x1f
41000970:	0166c5b3          	xor	a1,a3,s6
41000974:	40d585b3          	sub	a1,a1,a3
41000978:	41f5d693          	srai	a3,a1,0x1f
4100097c:	01f69693          	slli	a3,a3,0x1f
41000980:	0015d513          	srli	a0,a1,0x1
41000984:	00a6e533          	or	a0,a3,a0
41000988:	41f5d593          	srai	a1,a1,0x1f
4100098c:	04094e63          	bltz	s2,410009e8 <glFrustum+0x210>
41000990:	040b4c63          	bltz	s6,410009e8 <glFrustum+0x210>
41000994:	00a70533          	add	a0,a4,a0
41000998:	00e53733          	sltu	a4,a0,a4
4100099c:	00b785b3          	add	a1,a5,a1
410009a0:	00b705b3          	add	a1,a4,a1
410009a4:	0580006f          	j	410009fc <glFrustum+0x224>
410009a8:	f60bd8e3          	bgez	s7,41000918 <glFrustum+0x140>
410009ac:	f05ff06f          	j	410008b0 <glFrustum+0xd8>
410009b0:	f80558e3          	bgez	a0,41000940 <glFrustum+0x168>
410009b4:	80000537          	lui	a0,0x80000
410009b8:	fff54513          	not	a0,a0
410009bc:	f91ff06f          	j	4100094c <glFrustum+0x174>
410009c0:	800007b7          	lui	a5,0x80000
410009c4:	f8f774e3          	bgeu	a4,a5,4100094c <glFrustum+0x174>
410009c8:	80000537          	lui	a0,0x80000
410009cc:	f81ff06f          	j	4100094c <glFrustum+0x174>
410009d0:	00094863          	bltz	s2,410009e0 <glFrustum+0x208>
410009d4:	80000537          	lui	a0,0x80000
410009d8:	fff54513          	not	a0,a0
410009dc:	0440006f          	j	41000a20 <glFrustum+0x248>
410009e0:	80000537          	lui	a0,0x80000
410009e4:	03c0006f          	j	41000a20 <glFrustum+0x248>
410009e8:	0807c663          	bltz	a5,41000a74 <glFrustum+0x29c>
410009ec:	40a70533          	sub	a0,a4,a0
410009f0:	00a73733          	sltu	a4,a4,a0
410009f4:	40b785b3          	sub	a1,a5,a1
410009f8:	40e585b3          	sub	a1,a1,a4
410009fc:	000b0613          	mv	a2,s6
41000a00:	41fb5693          	srai	a3,s6,0x1f
41000a04:	418020ef          	jal	ra,41002e1c <__divdi3>
41000a08:	00050713          	mv	a4,a0
41000a0c:	06b04a63          	bgtz	a1,41000a80 <glFrustum+0x2a8>
41000a10:	06058663          	beqz	a1,41000a7c <glFrustum+0x2a4>
41000a14:	fff00793          	li	a5,-1
41000a18:	06f5ce63          	blt	a1,a5,41000a94 <glFrustum+0x2bc>
41000a1c:	06f58863          	beq	a1,a5,41000a8c <glFrustum+0x2b4>
41000a20:	00a42a23          	sw	a0,20(s0)
41000a24:	00042c23          	sw	zero,24(s0)
41000a28:	00042e23          	sw	zero,28(s0)
41000a2c:	060b8863          	beqz	s7,41000a9c <glFrustum+0x2c4>
41000a30:	410d5793          	srai	a5,s10,0x10
41000a34:	010d1713          	slli	a4,s10,0x10
41000a38:	41fbd693          	srai	a3,s7,0x1f
41000a3c:	0176c5b3          	xor	a1,a3,s7
41000a40:	40d585b3          	sub	a1,a1,a3
41000a44:	41f5d693          	srai	a3,a1,0x1f
41000a48:	01f69693          	slli	a3,a3,0x1f
41000a4c:	0015d513          	srli	a0,a1,0x1
41000a50:	00a6e533          	or	a0,a3,a0
41000a54:	41f5d593          	srai	a1,a1,0x1f
41000a58:	040d4e63          	bltz	s10,41000ab4 <glFrustum+0x2dc>
41000a5c:	040bcc63          	bltz	s7,41000ab4 <glFrustum+0x2dc>
41000a60:	00a70533          	add	a0,a4,a0
41000a64:	00e53733          	sltu	a4,a0,a4
41000a68:	00b785b3          	add	a1,a5,a1
41000a6c:	00b705b3          	add	a1,a4,a1
41000a70:	0580006f          	j	41000ac8 <glFrustum+0x2f0>
41000a74:	f60b5ce3          	bgez	s6,410009ec <glFrustum+0x214>
41000a78:	f1dff06f          	j	41000994 <glFrustum+0x1bc>
41000a7c:	f8055ce3          	bgez	a0,41000a14 <glFrustum+0x23c>
41000a80:	80000537          	lui	a0,0x80000
41000a84:	fff54513          	not	a0,a0
41000a88:	f99ff06f          	j	41000a20 <glFrustum+0x248>
41000a8c:	800007b7          	lui	a5,0x80000
41000a90:	f8f778e3          	bgeu	a4,a5,41000a20 <glFrustum+0x248>
41000a94:	80000537          	lui	a0,0x80000
41000a98:	f89ff06f          	j	41000a20 <glFrustum+0x248>
41000a9c:	000d4863          	bltz	s10,41000aac <glFrustum+0x2d4>
41000aa0:	80000537          	lui	a0,0x80000
41000aa4:	fff54513          	not	a0,a0
41000aa8:	0440006f          	j	41000aec <glFrustum+0x314>
41000aac:	80000537          	lui	a0,0x80000
41000ab0:	03c0006f          	j	41000aec <glFrustum+0x314>
41000ab4:	0807c263          	bltz	a5,41000b38 <glFrustum+0x360>
41000ab8:	40a70533          	sub	a0,a4,a0
41000abc:	00a73733          	sltu	a4,a4,a0
41000ac0:	40b785b3          	sub	a1,a5,a1
41000ac4:	40e585b3          	sub	a1,a1,a4
41000ac8:	000b8613          	mv	a2,s7
41000acc:	41fbd693          	srai	a3,s7,0x1f
41000ad0:	34c020ef          	jal	ra,41002e1c <__divdi3>
41000ad4:	00050713          	mv	a4,a0
41000ad8:	06b04663          	bgtz	a1,41000b44 <glFrustum+0x36c>
41000adc:	06058263          	beqz	a1,41000b40 <glFrustum+0x368>
41000ae0:	fff00793          	li	a5,-1
41000ae4:	06f5ca63          	blt	a1,a5,41000b58 <glFrustum+0x380>
41000ae8:	06f58463          	beq	a1,a5,41000b50 <glFrustum+0x378>
41000aec:	02a42023          	sw	a0,32(s0)
41000af0:	060b0863          	beqz	s6,41000b60 <glFrustum+0x388>
41000af4:	410c5793          	srai	a5,s8,0x10
41000af8:	010c1713          	slli	a4,s8,0x10
41000afc:	41fb5693          	srai	a3,s6,0x1f
41000b00:	0166c5b3          	xor	a1,a3,s6
41000b04:	40d585b3          	sub	a1,a1,a3
41000b08:	41f5d693          	srai	a3,a1,0x1f
41000b0c:	01f69693          	slli	a3,a3,0x1f
41000b10:	0015d513          	srli	a0,a1,0x1
41000b14:	00a6e533          	or	a0,a3,a0
41000b18:	41f5d593          	srai	a1,a1,0x1f
41000b1c:	040c4e63          	bltz	s8,41000b78 <glFrustum+0x3a0>
41000b20:	040b4c63          	bltz	s6,41000b78 <glFrustum+0x3a0>
41000b24:	00a70533          	add	a0,a4,a0
41000b28:	00e53733          	sltu	a4,a0,a4
41000b2c:	00b785b3          	add	a1,a5,a1
41000b30:	00b705b3          	add	a1,a4,a1
41000b34:	0580006f          	j	41000b8c <glFrustum+0x3b4>
41000b38:	f80bd0e3          	bgez	s7,41000ab8 <glFrustum+0x2e0>
41000b3c:	f25ff06f          	j	41000a60 <glFrustum+0x288>
41000b40:	fa0550e3          	bgez	a0,41000ae0 <glFrustum+0x308>
41000b44:	80000537          	lui	a0,0x80000
41000b48:	fff54513          	not	a0,a0
41000b4c:	fa1ff06f          	j	41000aec <glFrustum+0x314>
41000b50:	800007b7          	lui	a5,0x80000
41000b54:	f8f77ce3          	bgeu	a4,a5,41000aec <glFrustum+0x314>
41000b58:	80000537          	lui	a0,0x80000
41000b5c:	f91ff06f          	j	41000aec <glFrustum+0x314>
41000b60:	000c4863          	bltz	s8,41000b70 <glFrustum+0x398>
41000b64:	80000537          	lui	a0,0x80000
41000b68:	fff54513          	not	a0,a0
41000b6c:	0440006f          	j	41000bb0 <glFrustum+0x3d8>
41000b70:	80000537          	lui	a0,0x80000
41000b74:	03c0006f          	j	41000bb0 <glFrustum+0x3d8>
41000b78:	0807c263          	bltz	a5,41000bfc <glFrustum+0x424>
41000b7c:	40a70533          	sub	a0,a4,a0
41000b80:	00a73733          	sltu	a4,a4,a0
41000b84:	40b785b3          	sub	a1,a5,a1
41000b88:	40e585b3          	sub	a1,a1,a4
41000b8c:	000b0613          	mv	a2,s6
41000b90:	41fb5693          	srai	a3,s6,0x1f
41000b94:	288020ef          	jal	ra,41002e1c <__divdi3>
41000b98:	00050713          	mv	a4,a0
41000b9c:	06b04663          	bgtz	a1,41000c08 <glFrustum+0x430>
41000ba0:	06058263          	beqz	a1,41000c04 <glFrustum+0x42c>
41000ba4:	fff00793          	li	a5,-1
41000ba8:	06f5ca63          	blt	a1,a5,41000c1c <glFrustum+0x444>
41000bac:	06f58463          	beq	a1,a5,41000c14 <glFrustum+0x43c>
41000bb0:	02a42223          	sw	a0,36(s0)
41000bb4:	06048863          	beqz	s1,41000c24 <glFrustum+0x44c>
41000bb8:	410cd793          	srai	a5,s9,0x10
41000bbc:	010c9713          	slli	a4,s9,0x10
41000bc0:	41f4d693          	srai	a3,s1,0x1f
41000bc4:	0096c5b3          	xor	a1,a3,s1
41000bc8:	40d585b3          	sub	a1,a1,a3
41000bcc:	41f5d693          	srai	a3,a1,0x1f
41000bd0:	01f69693          	slli	a3,a3,0x1f
41000bd4:	0015d513          	srli	a0,a1,0x1
41000bd8:	00a6e533          	or	a0,a3,a0
41000bdc:	41f5d593          	srai	a1,a1,0x1f
41000be0:	040cce63          	bltz	s9,41000c3c <glFrustum+0x464>
41000be4:	0404cc63          	bltz	s1,41000c3c <glFrustum+0x464>
41000be8:	00a70533          	add	a0,a4,a0
41000bec:	00e53733          	sltu	a4,a0,a4
41000bf0:	00b785b3          	add	a1,a5,a1
41000bf4:	00b705b3          	add	a1,a4,a1
41000bf8:	0580006f          	j	41000c50 <glFrustum+0x478>
41000bfc:	f80b50e3          	bgez	s6,41000b7c <glFrustum+0x3a4>
41000c00:	f25ff06f          	j	41000b24 <glFrustum+0x34c>
41000c04:	fa0550e3          	bgez	a0,41000ba4 <glFrustum+0x3cc>
41000c08:	80000537          	lui	a0,0x80000
41000c0c:	fff54513          	not	a0,a0
41000c10:	fa1ff06f          	j	41000bb0 <glFrustum+0x3d8>
41000c14:	800007b7          	lui	a5,0x80000
41000c18:	f8f77ce3          	bgeu	a4,a5,41000bb0 <glFrustum+0x3d8>
41000c1c:	80000537          	lui	a0,0x80000
41000c20:	f91ff06f          	j	41000bb0 <glFrustum+0x3d8>
41000c24:	000cc863          	bltz	s9,41000c34 <glFrustum+0x45c>
41000c28:	80000537          	lui	a0,0x80000
41000c2c:	fff54513          	not	a0,a0
41000c30:	0440006f          	j	41000c74 <glFrustum+0x49c>
41000c34:	80000537          	lui	a0,0x80000
41000c38:	03c0006f          	j	41000c74 <glFrustum+0x49c>
41000c3c:	1207cc63          	bltz	a5,41000d74 <glFrustum+0x59c>
41000c40:	40a70533          	sub	a0,a4,a0
41000c44:	00a73733          	sltu	a4,a4,a0
41000c48:	40b785b3          	sub	a1,a5,a1
41000c4c:	40e585b3          	sub	a1,a1,a4
41000c50:	00048613          	mv	a2,s1
41000c54:	41f4d693          	srai	a3,s1,0x1f
41000c58:	1c4020ef          	jal	ra,41002e1c <__divdi3>
41000c5c:	00050713          	mv	a4,a0
41000c60:	12b04063          	bgtz	a1,41000d80 <glFrustum+0x5a8>
41000c64:	10058c63          	beqz	a1,41000d7c <glFrustum+0x5a4>
41000c68:	fff00793          	li	a5,-1
41000c6c:	12f5c463          	blt	a1,a5,41000d94 <glFrustum+0x5bc>
41000c70:	10f58e63          	beq	a1,a5,41000d8c <glFrustum+0x5b4>
41000c74:	40a00533          	neg	a0,a0
41000c78:	02a42423          	sw	a0,40(s0)
41000c7c:	ffff07b7          	lui	a5,0xffff0
41000c80:	02f42623          	sw	a5,44(s0)
41000c84:	02042823          	sw	zero,48(s0)
41000c88:	02042a23          	sw	zero,52(s0)
41000c8c:	41f9d793          	srai	a5,s3,0x1f
41000c90:	034787b3          	mul	a5,a5,s4
41000c94:	033a8ab3          	mul	s5,s5,s3
41000c98:	01578ab3          	add	s5,a5,s5
41000c9c:	034986b3          	mul	a3,s3,s4
41000ca0:	0349b7b3          	mulhu	a5,s3,s4
41000ca4:	00fa87b3          	add	a5,s5,a5
41000ca8:	0e07ca63          	bltz	a5,41000d9c <glFrustum+0x5c4>
41000cac:	00008737          	lui	a4,0x8
41000cb0:	00e68733          	add	a4,a3,a4
41000cb4:	00d736b3          	sltu	a3,a4,a3
41000cb8:	00f687b3          	add	a5,a3,a5
41000cbc:	01079693          	slli	a3,a5,0x10
41000cc0:	01075713          	srli	a4,a4,0x10
41000cc4:	00e6e733          	or	a4,a3,a4
41000cc8:	4107d793          	srai	a5,a5,0x10
41000ccc:	0ef04663          	bgtz	a5,41000db8 <glFrustum+0x5e0>
41000cd0:	0e078263          	beqz	a5,41000db4 <glFrustum+0x5dc>
41000cd4:	fff00693          	li	a3,-1
41000cd8:	0ed7ca63          	blt	a5,a3,41000dcc <glFrustum+0x5f4>
41000cdc:	0ed78463          	beq	a5,a3,41000dc4 <glFrustum+0x5ec>
41000ce0:	41f75793          	srai	a5,a4,0x1f
41000ce4:	00f75693          	srli	a3,a4,0xf
41000ce8:	01179793          	slli	a5,a5,0x11
41000cec:	00f6e7b3          	or	a5,a3,a5
41000cf0:	01171713          	slli	a4,a4,0x11
41000cf4:	0e07c063          	bltz	a5,41000dd4 <glFrustum+0x5fc>
41000cf8:	000086b7          	lui	a3,0x8
41000cfc:	00d706b3          	add	a3,a4,a3
41000d00:	00e6b733          	sltu	a4,a3,a4
41000d04:	00f707b3          	add	a5,a4,a5
41000d08:	01079613          	slli	a2,a5,0x10
41000d0c:	0106d713          	srli	a4,a3,0x10
41000d10:	00e66733          	or	a4,a2,a4
41000d14:	4107d793          	srai	a5,a5,0x10
41000d18:	0cf04c63          	bgtz	a5,41000df0 <glFrustum+0x618>
41000d1c:	0c078863          	beqz	a5,41000dec <glFrustum+0x614>
41000d20:	fff00693          	li	a3,-1
41000d24:	0ed7c063          	blt	a5,a3,41000e04 <glFrustum+0x62c>
41000d28:	0cd78a63          	beq	a5,a3,41000dfc <glFrustum+0x624>
41000d2c:	0e048063          	beqz	s1,41000e0c <glFrustum+0x634>
41000d30:	41075793          	srai	a5,a4,0x10
41000d34:	01071693          	slli	a3,a4,0x10
41000d38:	41f4d613          	srai	a2,s1,0x1f
41000d3c:	009645b3          	xor	a1,a2,s1
41000d40:	40c585b3          	sub	a1,a1,a2
41000d44:	41f5d613          	srai	a2,a1,0x1f
41000d48:	01f61613          	slli	a2,a2,0x1f
41000d4c:	0015d513          	srli	a0,a1,0x1
41000d50:	00a66533          	or	a0,a2,a0
41000d54:	41f5d593          	srai	a1,a1,0x1f
41000d58:	0c074663          	bltz	a4,41000e24 <glFrustum+0x64c>
41000d5c:	0c04c463          	bltz	s1,41000e24 <glFrustum+0x64c>
41000d60:	00a68533          	add	a0,a3,a0
41000d64:	00d536b3          	sltu	a3,a0,a3
41000d68:	00b785b3          	add	a1,a5,a1
41000d6c:	00b685b3          	add	a1,a3,a1
41000d70:	0c80006f          	j	41000e38 <glFrustum+0x660>
41000d74:	ec04d6e3          	bgez	s1,41000c40 <glFrustum+0x468>
41000d78:	e71ff06f          	j	41000be8 <glFrustum+0x410>
41000d7c:	ee0556e3          	bgez	a0,41000c68 <glFrustum+0x490>
41000d80:	80000537          	lui	a0,0x80000
41000d84:	fff54513          	not	a0,a0
41000d88:	eedff06f          	j	41000c74 <glFrustum+0x49c>
41000d8c:	800007b7          	lui	a5,0x80000
41000d90:	eef772e3          	bgeu	a4,a5,41000c74 <glFrustum+0x49c>
41000d94:	80000537          	lui	a0,0x80000
41000d98:	eddff06f          	j	41000c74 <glFrustum+0x49c>
41000d9c:	ffff8737          	lui	a4,0xffff8
41000da0:	00e68733          	add	a4,a3,a4
41000da4:	00d736b3          	sltu	a3,a4,a3
41000da8:	fff78793          	addi	a5,a5,-1 # 7fffffff <_end+0x3ef976b3>
41000dac:	00f687b3          	add	a5,a3,a5
41000db0:	f0dff06f          	j	41000cbc <glFrustum+0x4e4>
41000db4:	f20750e3          	bgez	a4,41000cd4 <glFrustum+0x4fc>
41000db8:	80000737          	lui	a4,0x80000
41000dbc:	fff74713          	not	a4,a4
41000dc0:	f21ff06f          	j	41000ce0 <glFrustum+0x508>
41000dc4:	800007b7          	lui	a5,0x80000
41000dc8:	f0f77ce3          	bgeu	a4,a5,41000ce0 <glFrustum+0x508>
41000dcc:	80000737          	lui	a4,0x80000
41000dd0:	f11ff06f          	j	41000ce0 <glFrustum+0x508>
41000dd4:	ffff86b7          	lui	a3,0xffff8
41000dd8:	00d706b3          	add	a3,a4,a3
41000ddc:	00e6b733          	sltu	a4,a3,a4
41000de0:	fff78793          	addi	a5,a5,-1 # 7fffffff <_end+0x3ef976b3>
41000de4:	00f707b3          	add	a5,a4,a5
41000de8:	f21ff06f          	j	41000d08 <glFrustum+0x530>
41000dec:	f2075ae3          	bgez	a4,41000d20 <glFrustum+0x548>
41000df0:	80000737          	lui	a4,0x80000
41000df4:	fff74713          	not	a4,a4
41000df8:	f35ff06f          	j	41000d2c <glFrustum+0x554>
41000dfc:	800007b7          	lui	a5,0x80000
41000e00:	f2f776e3          	bgeu	a4,a5,41000d2c <glFrustum+0x554>
41000e04:	80000737          	lui	a4,0x80000
41000e08:	f25ff06f          	j	41000d2c <glFrustum+0x554>
41000e0c:	00074863          	bltz	a4,41000e1c <glFrustum+0x644>
41000e10:	80000537          	lui	a0,0x80000
41000e14:	fff54513          	not	a0,a0
41000e18:	0440006f          	j	41000e5c <glFrustum+0x684>
41000e1c:	80000537          	lui	a0,0x80000
41000e20:	03c0006f          	j	41000e5c <glFrustum+0x684>
41000e24:	0607ce63          	bltz	a5,41000ea0 <glFrustum+0x6c8>
41000e28:	40a68533          	sub	a0,a3,a0
41000e2c:	00a6b6b3          	sltu	a3,a3,a0
41000e30:	40b785b3          	sub	a1,a5,a1
41000e34:	40d585b3          	sub	a1,a1,a3
41000e38:	00048613          	mv	a2,s1
41000e3c:	41f4d693          	srai	a3,s1,0x1f
41000e40:	7dd010ef          	jal	ra,41002e1c <__divdi3>
41000e44:	00050713          	mv	a4,a0
41000e48:	06b04263          	bgtz	a1,41000eac <glFrustum+0x6d4>
41000e4c:	04058e63          	beqz	a1,41000ea8 <glFrustum+0x6d0>
41000e50:	fff00793          	li	a5,-1
41000e54:	06f5c663          	blt	a1,a5,41000ec0 <glFrustum+0x6e8>
41000e58:	06f58063          	beq	a1,a5,41000eb8 <glFrustum+0x6e0>
41000e5c:	40a00533          	neg	a0,a0
41000e60:	02a42c23          	sw	a0,56(s0)
41000e64:	02042e23          	sw	zero,60(s0)
41000e68:	02c12083          	lw	ra,44(sp)
41000e6c:	02812403          	lw	s0,40(sp)
41000e70:	02412483          	lw	s1,36(sp)
41000e74:	02012903          	lw	s2,32(sp)
41000e78:	01c12983          	lw	s3,28(sp)
41000e7c:	01812a03          	lw	s4,24(sp)
41000e80:	01412a83          	lw	s5,20(sp)
41000e84:	01012b03          	lw	s6,16(sp)
41000e88:	00c12b83          	lw	s7,12(sp)
41000e8c:	00812c03          	lw	s8,8(sp)
41000e90:	00412c83          	lw	s9,4(sp)
41000e94:	00012d03          	lw	s10,0(sp)
41000e98:	03010113          	addi	sp,sp,48
41000e9c:	00008067          	ret
41000ea0:	f804d4e3          	bgez	s1,41000e28 <glFrustum+0x650>
41000ea4:	ebdff06f          	j	41000d60 <glFrustum+0x588>
41000ea8:	fa0554e3          	bgez	a0,41000e50 <glFrustum+0x678>
41000eac:	80000537          	lui	a0,0x80000
41000eb0:	fff54513          	not	a0,a0
41000eb4:	fa9ff06f          	j	41000e5c <glFrustum+0x684>
41000eb8:	800007b7          	lui	a5,0x80000
41000ebc:	faf770e3          	bgeu	a4,a5,41000e5c <glFrustum+0x684>
41000ec0:	80000537          	lui	a0,0x80000
41000ec4:	f99ff06f          	j	41000e5c <glFrustum+0x684>

41000ec8 <multPointMatrix>:
41000ec8:	fe010113          	addi	sp,sp,-32
41000ecc:	00112e23          	sw	ra,28(sp)
41000ed0:	00812c23          	sw	s0,24(sp)
41000ed4:	00912a23          	sw	s1,20(sp)
41000ed8:	01212823          	sw	s2,16(sp)
41000edc:	01312623          	sw	s3,12(sp)
41000ee0:	00058913          	mv	s2,a1
41000ee4:	00052883          	lw	a7,0(a0) # 80000000 <_end+0x3ef976b4>
41000ee8:	00062783          	lw	a5,0(a2) # 80000000 <_end+0x3ef976b4>
41000eec:	41f8de13          	srai	t3,a7,0x1f
41000ef0:	41f7d713          	srai	a4,a5,0x1f
41000ef4:	02fe06b3          	mul	a3,t3,a5
41000ef8:	03170733          	mul	a4,a4,a7
41000efc:	00e686b3          	add	a3,a3,a4
41000f00:	02f88733          	mul	a4,a7,a5
41000f04:	02f8b5b3          	mulhu	a1,a7,a5
41000f08:	00b685b3          	add	a1,a3,a1
41000f0c:	4a05cc63          	bltz	a1,410013c4 <multPointMatrix+0x4fc>
41000f10:	000086b7          	lui	a3,0x8
41000f14:	00d706b3          	add	a3,a4,a3
41000f18:	00e6b7b3          	sltu	a5,a3,a4
41000f1c:	00b787b3          	add	a5,a5,a1
41000f20:	01079593          	slli	a1,a5,0x10
41000f24:	0106d713          	srli	a4,a3,0x10
41000f28:	00e5e733          	or	a4,a1,a4
41000f2c:	4107d793          	srai	a5,a5,0x10
41000f30:	4af04863          	bgtz	a5,410013e0 <multPointMatrix+0x518>
41000f34:	4a078463          	beqz	a5,410013dc <multPointMatrix+0x514>
41000f38:	fff00693          	li	a3,-1
41000f3c:	4ad7cc63          	blt	a5,a3,410013f4 <multPointMatrix+0x52c>
41000f40:	4ad78663          	beq	a5,a3,410013ec <multPointMatrix+0x524>
41000f44:	00070593          	mv	a1,a4
41000f48:	00452803          	lw	a6,4(a0)
41000f4c:	01062783          	lw	a5,16(a2)
41000f50:	41f85313          	srai	t1,a6,0x1f
41000f54:	41f7d693          	srai	a3,a5,0x1f
41000f58:	02f30733          	mul	a4,t1,a5
41000f5c:	030686b3          	mul	a3,a3,a6
41000f60:	00d70733          	add	a4,a4,a3
41000f64:	02f806b3          	mul	a3,a6,a5
41000f68:	02f83eb3          	mulhu	t4,a6,a5
41000f6c:	01d70eb3          	add	t4,a4,t4
41000f70:	480ec663          	bltz	t4,410013fc <multPointMatrix+0x534>
41000f74:	00008737          	lui	a4,0x8
41000f78:	00e68733          	add	a4,a3,a4
41000f7c:	00d737b3          	sltu	a5,a4,a3
41000f80:	01d787b3          	add	a5,a5,t4
41000f84:	01079693          	slli	a3,a5,0x10
41000f88:	01075713          	srli	a4,a4,0x10
41000f8c:	00e6e733          	or	a4,a3,a4
41000f90:	4107d793          	srai	a5,a5,0x10
41000f94:	48f04263          	bgtz	a5,41001418 <multPointMatrix+0x550>
41000f98:	46078e63          	beqz	a5,41001414 <multPointMatrix+0x54c>
41000f9c:	fff00693          	li	a3,-1
41000fa0:	48d7c663          	blt	a5,a3,4100142c <multPointMatrix+0x564>
41000fa4:	48d78063          	beq	a5,a3,41001424 <multPointMatrix+0x55c>
41000fa8:	00b70f33          	add	t5,a4,a1
41000fac:	00852683          	lw	a3,8(a0)
41000fb0:	02062783          	lw	a5,32(a2)
41000fb4:	41f6d593          	srai	a1,a3,0x1f
41000fb8:	41f7d513          	srai	a0,a5,0x1f
41000fbc:	02f58733          	mul	a4,a1,a5
41000fc0:	02d50533          	mul	a0,a0,a3
41000fc4:	00a70733          	add	a4,a4,a0
41000fc8:	02f68533          	mul	a0,a3,a5
41000fcc:	02f6beb3          	mulhu	t4,a3,a5
41000fd0:	01d70eb3          	add	t4,a4,t4
41000fd4:	460ec063          	bltz	t4,41001434 <multPointMatrix+0x56c>
41000fd8:	00008737          	lui	a4,0x8
41000fdc:	00e50733          	add	a4,a0,a4
41000fe0:	00a737b3          	sltu	a5,a4,a0
41000fe4:	01d787b3          	add	a5,a5,t4
41000fe8:	01079513          	slli	a0,a5,0x10
41000fec:	01075713          	srli	a4,a4,0x10
41000ff0:	00e56733          	or	a4,a0,a4
41000ff4:	4107d793          	srai	a5,a5,0x10
41000ff8:	44f04c63          	bgtz	a5,41001450 <multPointMatrix+0x588>
41000ffc:	44078863          	beqz	a5,4100144c <multPointMatrix+0x584>
41001000:	fff00513          	li	a0,-1
41001004:	46a7c063          	blt	a5,a0,41001464 <multPointMatrix+0x59c>
41001008:	44a78a63          	beq	a5,a0,4100145c <multPointMatrix+0x594>
4100100c:	00ef0733          	add	a4,t5,a4
41001010:	03062783          	lw	a5,48(a2)
41001014:	00f70733          	add	a4,a4,a5
41001018:	00e92023          	sw	a4,0(s2) # 80000000 <_end+0x3ef976b4>
4100101c:	00462503          	lw	a0,4(a2)
41001020:	41f55793          	srai	a5,a0,0x1f
41001024:	031787b3          	mul	a5,a5,a7
41001028:	02ae0eb3          	mul	t4,t3,a0
4100102c:	01d787b3          	add	a5,a5,t4
41001030:	03150eb3          	mul	t4,a0,a7
41001034:	03153f33          	mulhu	t5,a0,a7
41001038:	01e78f33          	add	t5,a5,t5
4100103c:	420f4863          	bltz	t5,4100146c <multPointMatrix+0x5a4>
41001040:	000087b7          	lui	a5,0x8
41001044:	00fe87b3          	add	a5,t4,a5
41001048:	01d7b533          	sltu	a0,a5,t4
4100104c:	01e50533          	add	a0,a0,t5
41001050:	01051e93          	slli	t4,a0,0x10
41001054:	0107d793          	srli	a5,a5,0x10
41001058:	00fee7b3          	or	a5,t4,a5
4100105c:	41055513          	srai	a0,a0,0x10
41001060:	42a04463          	bgtz	a0,41001488 <multPointMatrix+0x5c0>
41001064:	42050063          	beqz	a0,41001484 <multPointMatrix+0x5bc>
41001068:	fff00e93          	li	t4,-1
4100106c:	43d54863          	blt	a0,t4,4100149c <multPointMatrix+0x5d4>
41001070:	43d50263          	beq	a0,t4,41001494 <multPointMatrix+0x5cc>
41001074:	01462503          	lw	a0,20(a2)
41001078:	41f55f93          	srai	t6,a0,0x1f
4100107c:	030f8fb3          	mul	t6,t6,a6
41001080:	02a30eb3          	mul	t4,t1,a0
41001084:	01df8fb3          	add	t6,t6,t4
41001088:	03050eb3          	mul	t4,a0,a6
4100108c:	03053f33          	mulhu	t5,a0,a6
41001090:	01ef8f33          	add	t5,t6,t5
41001094:	400f4863          	bltz	t5,410014a4 <multPointMatrix+0x5dc>
41001098:	000084b7          	lui	s1,0x8
4100109c:	009e84b3          	add	s1,t4,s1
410010a0:	01d4b533          	sltu	a0,s1,t4
410010a4:	01e50533          	add	a0,a0,t5
410010a8:	01051e93          	slli	t4,a0,0x10
410010ac:	0104d493          	srli	s1,s1,0x10
410010b0:	009ee4b3          	or	s1,t4,s1
410010b4:	41055513          	srai	a0,a0,0x10
410010b8:	40a04463          	bgtz	a0,410014c0 <multPointMatrix+0x5f8>
410010bc:	40050063          	beqz	a0,410014bc <multPointMatrix+0x5f4>
410010c0:	fff00e93          	li	t4,-1
410010c4:	41d54863          	blt	a0,t4,410014d4 <multPointMatrix+0x60c>
410010c8:	41d50263          	beq	a0,t4,410014cc <multPointMatrix+0x604>
410010cc:	00f487b3          	add	a5,s1,a5
410010d0:	02462503          	lw	a0,36(a2)
410010d4:	41f55f93          	srai	t6,a0,0x1f
410010d8:	02df8fb3          	mul	t6,t6,a3
410010dc:	02a58eb3          	mul	t4,a1,a0
410010e0:	01df8fb3          	add	t6,t6,t4
410010e4:	02d50eb3          	mul	t4,a0,a3
410010e8:	02d53f33          	mulhu	t5,a0,a3
410010ec:	01ef8f33          	add	t5,t6,t5
410010f0:	3e0f4663          	bltz	t5,410014dc <multPointMatrix+0x614>
410010f4:	000084b7          	lui	s1,0x8
410010f8:	009e84b3          	add	s1,t4,s1
410010fc:	01d4b533          	sltu	a0,s1,t4
41001100:	01e50533          	add	a0,a0,t5
41001104:	01051e93          	slli	t4,a0,0x10
41001108:	0104d493          	srli	s1,s1,0x10
4100110c:	009ee4b3          	or	s1,t4,s1
41001110:	41055513          	srai	a0,a0,0x10
41001114:	3ea04263          	bgtz	a0,410014f8 <multPointMatrix+0x630>
41001118:	3c050e63          	beqz	a0,410014f4 <multPointMatrix+0x62c>
4100111c:	fff00e93          	li	t4,-1
41001120:	3fd54663          	blt	a0,t4,4100150c <multPointMatrix+0x644>
41001124:	3fd50063          	beq	a0,t4,41001504 <multPointMatrix+0x63c>
41001128:	009784b3          	add	s1,a5,s1
4100112c:	03462783          	lw	a5,52(a2)
41001130:	00f484b3          	add	s1,s1,a5
41001134:	00992223          	sw	s1,4(s2)
41001138:	00862503          	lw	a0,8(a2)
4100113c:	41f55793          	srai	a5,a0,0x1f
41001140:	031787b3          	mul	a5,a5,a7
41001144:	02ae0eb3          	mul	t4,t3,a0
41001148:	01d787b3          	add	a5,a5,t4
4100114c:	03150eb3          	mul	t4,a0,a7
41001150:	03153f33          	mulhu	t5,a0,a7
41001154:	01e78f33          	add	t5,a5,t5
41001158:	3a0f4e63          	bltz	t5,41001514 <multPointMatrix+0x64c>
4100115c:	000087b7          	lui	a5,0x8
41001160:	00fe87b3          	add	a5,t4,a5
41001164:	01d7b533          	sltu	a0,a5,t4
41001168:	01e50533          	add	a0,a0,t5
4100116c:	01051e93          	slli	t4,a0,0x10
41001170:	0107d793          	srli	a5,a5,0x10
41001174:	00fee7b3          	or	a5,t4,a5
41001178:	41055513          	srai	a0,a0,0x10
4100117c:	3aa04a63          	bgtz	a0,41001530 <multPointMatrix+0x668>
41001180:	3a050663          	beqz	a0,4100152c <multPointMatrix+0x664>
41001184:	fff00e93          	li	t4,-1
41001188:	3bd54e63          	blt	a0,t4,41001544 <multPointMatrix+0x67c>
4100118c:	3bd50863          	beq	a0,t4,4100153c <multPointMatrix+0x674>
41001190:	01862503          	lw	a0,24(a2)
41001194:	41f55f93          	srai	t6,a0,0x1f
41001198:	030f8fb3          	mul	t6,t6,a6
4100119c:	02a30eb3          	mul	t4,t1,a0
410011a0:	01df8fb3          	add	t6,t6,t4
410011a4:	03050eb3          	mul	t4,a0,a6
410011a8:	03053f33          	mulhu	t5,a0,a6
410011ac:	01ef8f33          	add	t5,t6,t5
410011b0:	380f4e63          	bltz	t5,4100154c <multPointMatrix+0x684>
410011b4:	00008437          	lui	s0,0x8
410011b8:	008e8433          	add	s0,t4,s0
410011bc:	01d43533          	sltu	a0,s0,t4
410011c0:	01e50533          	add	a0,a0,t5
410011c4:	01051e93          	slli	t4,a0,0x10
410011c8:	01045413          	srli	s0,s0,0x10
410011cc:	008ee433          	or	s0,t4,s0
410011d0:	41055513          	srai	a0,a0,0x10
410011d4:	38a04a63          	bgtz	a0,41001568 <multPointMatrix+0x6a0>
410011d8:	38050663          	beqz	a0,41001564 <multPointMatrix+0x69c>
410011dc:	fff00e93          	li	t4,-1
410011e0:	39d54e63          	blt	a0,t4,4100157c <multPointMatrix+0x6b4>
410011e4:	39d50863          	beq	a0,t4,41001574 <multPointMatrix+0x6ac>
410011e8:	00f407b3          	add	a5,s0,a5
410011ec:	02862503          	lw	a0,40(a2)
410011f0:	41f55f93          	srai	t6,a0,0x1f
410011f4:	02df8fb3          	mul	t6,t6,a3
410011f8:	02a58eb3          	mul	t4,a1,a0
410011fc:	01df8fb3          	add	t6,t6,t4
41001200:	02d50eb3          	mul	t4,a0,a3
41001204:	02d53f33          	mulhu	t5,a0,a3
41001208:	01ef8f33          	add	t5,t6,t5
4100120c:	360f4c63          	bltz	t5,41001584 <multPointMatrix+0x6bc>
41001210:	00008437          	lui	s0,0x8
41001214:	008e8433          	add	s0,t4,s0
41001218:	01d43533          	sltu	a0,s0,t4
4100121c:	01e50533          	add	a0,a0,t5
41001220:	01051e93          	slli	t4,a0,0x10
41001224:	01045413          	srli	s0,s0,0x10
41001228:	008ee433          	or	s0,t4,s0
4100122c:	41055513          	srai	a0,a0,0x10
41001230:	36a04863          	bgtz	a0,410015a0 <multPointMatrix+0x6d8>
41001234:	36050463          	beqz	a0,4100159c <multPointMatrix+0x6d4>
41001238:	fff00e93          	li	t4,-1
4100123c:	37d54c63          	blt	a0,t4,410015b4 <multPointMatrix+0x6ec>
41001240:	37d50663          	beq	a0,t4,410015ac <multPointMatrix+0x6e4>
41001244:	00878433          	add	s0,a5,s0
41001248:	03862783          	lw	a5,56(a2)
4100124c:	00f40433          	add	s0,s0,a5
41001250:	00892423          	sw	s0,8(s2)
41001254:	00c62e83          	lw	t4,12(a2)
41001258:	41fed793          	srai	a5,t4,0x1f
4100125c:	031787b3          	mul	a5,a5,a7
41001260:	03de0e33          	mul	t3,t3,t4
41001264:	01c78e33          	add	t3,a5,t3
41001268:	031e87b3          	mul	a5,t4,a7
4100126c:	031ebeb3          	mulhu	t4,t4,a7
41001270:	01de0eb3          	add	t4,t3,t4
41001274:	340ec463          	bltz	t4,410015bc <multPointMatrix+0x6f4>
41001278:	00008537          	lui	a0,0x8
4100127c:	00a78533          	add	a0,a5,a0
41001280:	00f538b3          	sltu	a7,a0,a5
41001284:	01d888b3          	add	a7,a7,t4
41001288:	01089e13          	slli	t3,a7,0x10
4100128c:	01055793          	srli	a5,a0,0x10
41001290:	00fe67b3          	or	a5,t3,a5
41001294:	4108d893          	srai	a7,a7,0x10
41001298:	35104063          	bgtz	a7,410015d8 <multPointMatrix+0x710>
4100129c:	32088c63          	beqz	a7,410015d4 <multPointMatrix+0x70c>
410012a0:	fff00513          	li	a0,-1
410012a4:	34a8c463          	blt	a7,a0,410015ec <multPointMatrix+0x724>
410012a8:	32a88e63          	beq	a7,a0,410015e4 <multPointMatrix+0x71c>
410012ac:	00078893          	mv	a7,a5
410012b0:	01c62e03          	lw	t3,28(a2)
410012b4:	41fe5793          	srai	a5,t3,0x1f
410012b8:	030787b3          	mul	a5,a5,a6
410012bc:	03c30333          	mul	t1,t1,t3
410012c0:	00678333          	add	t1,a5,t1
410012c4:	030e0533          	mul	a0,t3,a6
410012c8:	030e3e33          	mulhu	t3,t3,a6
410012cc:	01c30e33          	add	t3,t1,t3
410012d0:	320e4263          	bltz	t3,410015f4 <multPointMatrix+0x72c>
410012d4:	000087b7          	lui	a5,0x8
410012d8:	00f507b3          	add	a5,a0,a5
410012dc:	00a7b833          	sltu	a6,a5,a0
410012e0:	01c80833          	add	a6,a6,t3
410012e4:	01081513          	slli	a0,a6,0x10
410012e8:	0107d793          	srli	a5,a5,0x10
410012ec:	00f567b3          	or	a5,a0,a5
410012f0:	41085813          	srai	a6,a6,0x10
410012f4:	31004e63          	bgtz	a6,41001610 <multPointMatrix+0x748>
410012f8:	30080a63          	beqz	a6,4100160c <multPointMatrix+0x744>
410012fc:	fff00513          	li	a0,-1
41001300:	32a84263          	blt	a6,a0,41001624 <multPointMatrix+0x75c>
41001304:	30a80c63          	beq	a6,a0,4100161c <multPointMatrix+0x754>
41001308:	011788b3          	add	a7,a5,a7
4100130c:	02c62803          	lw	a6,44(a2)
41001310:	41f85793          	srai	a5,a6,0x1f
41001314:	02d787b3          	mul	a5,a5,a3
41001318:	030585b3          	mul	a1,a1,a6
4100131c:	00b785b3          	add	a1,a5,a1
41001320:	02d80533          	mul	a0,a6,a3
41001324:	02d83833          	mulhu	a6,a6,a3
41001328:	01058833          	add	a6,a1,a6
4100132c:	30084063          	bltz	a6,4100162c <multPointMatrix+0x764>
41001330:	000087b7          	lui	a5,0x8
41001334:	00f507b3          	add	a5,a0,a5
41001338:	00a7b6b3          	sltu	a3,a5,a0
4100133c:	010686b3          	add	a3,a3,a6
41001340:	01069593          	slli	a1,a3,0x10
41001344:	0107d793          	srli	a5,a5,0x10
41001348:	00f5e7b3          	or	a5,a1,a5
4100134c:	4106d693          	srai	a3,a3,0x10
41001350:	2ed04c63          	bgtz	a3,41001648 <multPointMatrix+0x780>
41001354:	2e068863          	beqz	a3,41001644 <multPointMatrix+0x77c>
41001358:	fff00593          	li	a1,-1
4100135c:	30b6c063          	blt	a3,a1,4100165c <multPointMatrix+0x794>
41001360:	2eb68a63          	beq	a3,a1,41001654 <multPointMatrix+0x78c>
41001364:	00f887b3          	add	a5,a7,a5
41001368:	03c62983          	lw	s3,60(a2)
4100136c:	013789b3          	add	s3,a5,s3
41001370:	000107b7          	lui	a5,0x10
41001374:	4cf98663          	beq	s3,a5,41001840 <multPointMatrix+0x978>
41001378:	4c098463          	beqz	s3,41001840 <multPointMatrix+0x978>
4100137c:	2e098463          	beqz	s3,41001664 <multPointMatrix+0x79c>
41001380:	41075693          	srai	a3,a4,0x10
41001384:	01071593          	slli	a1,a4,0x10
41001388:	41f9d613          	srai	a2,s3,0x1f
4100138c:	013647b3          	xor	a5,a2,s3
41001390:	40c787b3          	sub	a5,a5,a2
41001394:	41f7d613          	srai	a2,a5,0x1f
41001398:	01f61613          	slli	a2,a2,0x1f
4100139c:	0017d513          	srli	a0,a5,0x1
410013a0:	00a66533          	or	a0,a2,a0
410013a4:	41f7d793          	srai	a5,a5,0x1f
410013a8:	2c074a63          	bltz	a4,4100167c <multPointMatrix+0x7b4>
410013ac:	2c09c863          	bltz	s3,4100167c <multPointMatrix+0x7b4>
410013b0:	00a58533          	add	a0,a1,a0
410013b4:	00b535b3          	sltu	a1,a0,a1
410013b8:	00f687b3          	add	a5,a3,a5
410013bc:	00f585b3          	add	a1,a1,a5
410013c0:	2d00006f          	j	41001690 <multPointMatrix+0x7c8>
410013c4:	ffff86b7          	lui	a3,0xffff8
410013c8:	00d706b3          	add	a3,a4,a3
410013cc:	00e6b733          	sltu	a4,a3,a4
410013d0:	fff58793          	addi	a5,a1,-1 # 7fffffff <_end+0x3ef976b3>
410013d4:	00f707b3          	add	a5,a4,a5
410013d8:	b49ff06f          	j	41000f20 <multPointMatrix+0x58>
410013dc:	b4075ee3          	bgez	a4,41000f38 <multPointMatrix+0x70>
410013e0:	80000737          	lui	a4,0x80000
410013e4:	fff74593          	not	a1,a4
410013e8:	b61ff06f          	j	41000f48 <multPointMatrix+0x80>
410013ec:	800007b7          	lui	a5,0x80000
410013f0:	b4f77ae3          	bgeu	a4,a5,41000f44 <multPointMatrix+0x7c>
410013f4:	800005b7          	lui	a1,0x80000
410013f8:	b51ff06f          	j	41000f48 <multPointMatrix+0x80>
410013fc:	ffff8737          	lui	a4,0xffff8
41001400:	00e68733          	add	a4,a3,a4
41001404:	00d736b3          	sltu	a3,a4,a3
41001408:	fffe8793          	addi	a5,t4,-1
4100140c:	00f687b3          	add	a5,a3,a5
41001410:	b75ff06f          	j	41000f84 <multPointMatrix+0xbc>
41001414:	b80754e3          	bgez	a4,41000f9c <multPointMatrix+0xd4>
41001418:	80000737          	lui	a4,0x80000
4100141c:	fff74713          	not	a4,a4
41001420:	b89ff06f          	j	41000fa8 <multPointMatrix+0xe0>
41001424:	800007b7          	lui	a5,0x80000
41001428:	b8f770e3          	bgeu	a4,a5,41000fa8 <multPointMatrix+0xe0>
4100142c:	80000737          	lui	a4,0x80000
41001430:	b79ff06f          	j	41000fa8 <multPointMatrix+0xe0>
41001434:	ffff8737          	lui	a4,0xffff8
41001438:	00e50733          	add	a4,a0,a4
4100143c:	00a73533          	sltu	a0,a4,a0
41001440:	fffe8793          	addi	a5,t4,-1
41001444:	00f507b3          	add	a5,a0,a5
41001448:	ba1ff06f          	j	41000fe8 <multPointMatrix+0x120>
4100144c:	ba075ae3          	bgez	a4,41001000 <multPointMatrix+0x138>
41001450:	80000737          	lui	a4,0x80000
41001454:	fff74713          	not	a4,a4
41001458:	bb5ff06f          	j	4100100c <multPointMatrix+0x144>
4100145c:	800007b7          	lui	a5,0x80000
41001460:	baf776e3          	bgeu	a4,a5,4100100c <multPointMatrix+0x144>
41001464:	80000737          	lui	a4,0x80000
41001468:	ba5ff06f          	j	4100100c <multPointMatrix+0x144>
4100146c:	ffff87b7          	lui	a5,0xffff8
41001470:	00fe87b3          	add	a5,t4,a5
41001474:	01d7beb3          	sltu	t4,a5,t4
41001478:	ffff0513          	addi	a0,t5,-1
4100147c:	00ae8533          	add	a0,t4,a0
41001480:	bd1ff06f          	j	41001050 <multPointMatrix+0x188>
41001484:	be07d2e3          	bgez	a5,41001068 <multPointMatrix+0x1a0>
41001488:	800007b7          	lui	a5,0x80000
4100148c:	fff7c793          	not	a5,a5
41001490:	be5ff06f          	j	41001074 <multPointMatrix+0x1ac>
41001494:	80000537          	lui	a0,0x80000
41001498:	bca7fee3          	bgeu	a5,a0,41001074 <multPointMatrix+0x1ac>
4100149c:	800007b7          	lui	a5,0x80000
410014a0:	bd5ff06f          	j	41001074 <multPointMatrix+0x1ac>
410014a4:	ffff84b7          	lui	s1,0xffff8
410014a8:	009e84b3          	add	s1,t4,s1
410014ac:	01d4beb3          	sltu	t4,s1,t4
410014b0:	ffff0513          	addi	a0,t5,-1
410014b4:	00ae8533          	add	a0,t4,a0
410014b8:	bf1ff06f          	j	410010a8 <multPointMatrix+0x1e0>
410014bc:	c004d2e3          	bgez	s1,410010c0 <multPointMatrix+0x1f8>
410014c0:	800004b7          	lui	s1,0x80000
410014c4:	fff4c493          	not	s1,s1
410014c8:	c05ff06f          	j	410010cc <multPointMatrix+0x204>
410014cc:	80000537          	lui	a0,0x80000
410014d0:	bea4fee3          	bgeu	s1,a0,410010cc <multPointMatrix+0x204>
410014d4:	800004b7          	lui	s1,0x80000
410014d8:	bf5ff06f          	j	410010cc <multPointMatrix+0x204>
410014dc:	ffff84b7          	lui	s1,0xffff8
410014e0:	009e84b3          	add	s1,t4,s1
410014e4:	01d4beb3          	sltu	t4,s1,t4
410014e8:	ffff0513          	addi	a0,t5,-1
410014ec:	00ae8533          	add	a0,t4,a0
410014f0:	c15ff06f          	j	41001104 <multPointMatrix+0x23c>
410014f4:	c204d4e3          	bgez	s1,4100111c <multPointMatrix+0x254>
410014f8:	800004b7          	lui	s1,0x80000
410014fc:	fff4c493          	not	s1,s1
41001500:	c29ff06f          	j	41001128 <multPointMatrix+0x260>
41001504:	80000537          	lui	a0,0x80000
41001508:	c2a4f0e3          	bgeu	s1,a0,41001128 <multPointMatrix+0x260>
4100150c:	800004b7          	lui	s1,0x80000
41001510:	c19ff06f          	j	41001128 <multPointMatrix+0x260>
41001514:	ffff87b7          	lui	a5,0xffff8
41001518:	00fe87b3          	add	a5,t4,a5
4100151c:	01d7beb3          	sltu	t4,a5,t4
41001520:	ffff0513          	addi	a0,t5,-1
41001524:	00ae8533          	add	a0,t4,a0
41001528:	c45ff06f          	j	4100116c <multPointMatrix+0x2a4>
4100152c:	c407dce3          	bgez	a5,41001184 <multPointMatrix+0x2bc>
41001530:	800007b7          	lui	a5,0x80000
41001534:	fff7c793          	not	a5,a5
41001538:	c59ff06f          	j	41001190 <multPointMatrix+0x2c8>
4100153c:	80000537          	lui	a0,0x80000
41001540:	c4a7f8e3          	bgeu	a5,a0,41001190 <multPointMatrix+0x2c8>
41001544:	800007b7          	lui	a5,0x80000
41001548:	c49ff06f          	j	41001190 <multPointMatrix+0x2c8>
4100154c:	ffff8437          	lui	s0,0xffff8
41001550:	008e8433          	add	s0,t4,s0
41001554:	01d43eb3          	sltu	t4,s0,t4
41001558:	ffff0513          	addi	a0,t5,-1
4100155c:	00ae8533          	add	a0,t4,a0
41001560:	c65ff06f          	j	410011c4 <multPointMatrix+0x2fc>
41001564:	c6045ce3          	bgez	s0,410011dc <multPointMatrix+0x314>
41001568:	80000437          	lui	s0,0x80000
4100156c:	fff44413          	not	s0,s0
41001570:	c79ff06f          	j	410011e8 <multPointMatrix+0x320>
41001574:	80000537          	lui	a0,0x80000
41001578:	c6a478e3          	bgeu	s0,a0,410011e8 <multPointMatrix+0x320>
4100157c:	80000437          	lui	s0,0x80000
41001580:	c69ff06f          	j	410011e8 <multPointMatrix+0x320>
41001584:	ffff8437          	lui	s0,0xffff8
41001588:	008e8433          	add	s0,t4,s0
4100158c:	01d43eb3          	sltu	t4,s0,t4
41001590:	ffff0513          	addi	a0,t5,-1
41001594:	00ae8533          	add	a0,t4,a0
41001598:	c89ff06f          	j	41001220 <multPointMatrix+0x358>
4100159c:	c8045ee3          	bgez	s0,41001238 <multPointMatrix+0x370>
410015a0:	80000437          	lui	s0,0x80000
410015a4:	fff44413          	not	s0,s0
410015a8:	c9dff06f          	j	41001244 <multPointMatrix+0x37c>
410015ac:	80000537          	lui	a0,0x80000
410015b0:	c8a47ae3          	bgeu	s0,a0,41001244 <multPointMatrix+0x37c>
410015b4:	80000437          	lui	s0,0x80000
410015b8:	c8dff06f          	j	41001244 <multPointMatrix+0x37c>
410015bc:	ffff8537          	lui	a0,0xffff8
410015c0:	00a78533          	add	a0,a5,a0
410015c4:	00f537b3          	sltu	a5,a0,a5
410015c8:	fffe8893          	addi	a7,t4,-1
410015cc:	011788b3          	add	a7,a5,a7
410015d0:	cb9ff06f          	j	41001288 <multPointMatrix+0x3c0>
410015d4:	cc07d6e3          	bgez	a5,410012a0 <multPointMatrix+0x3d8>
410015d8:	800007b7          	lui	a5,0x80000
410015dc:	fff7c893          	not	a7,a5
410015e0:	cd1ff06f          	j	410012b0 <multPointMatrix+0x3e8>
410015e4:	80000537          	lui	a0,0x80000
410015e8:	cca7f2e3          	bgeu	a5,a0,410012ac <multPointMatrix+0x3e4>
410015ec:	800008b7          	lui	a7,0x80000
410015f0:	cc1ff06f          	j	410012b0 <multPointMatrix+0x3e8>
410015f4:	ffff87b7          	lui	a5,0xffff8
410015f8:	00f507b3          	add	a5,a0,a5
410015fc:	00a7b533          	sltu	a0,a5,a0
41001600:	fffe0813          	addi	a6,t3,-1
41001604:	01050833          	add	a6,a0,a6
41001608:	cddff06f          	j	410012e4 <multPointMatrix+0x41c>
4100160c:	ce07d8e3          	bgez	a5,410012fc <multPointMatrix+0x434>
41001610:	800007b7          	lui	a5,0x80000
41001614:	fff7c793          	not	a5,a5
41001618:	cf1ff06f          	j	41001308 <multPointMatrix+0x440>
4100161c:	80000537          	lui	a0,0x80000
41001620:	cea7f4e3          	bgeu	a5,a0,41001308 <multPointMatrix+0x440>
41001624:	800007b7          	lui	a5,0x80000
41001628:	ce1ff06f          	j	41001308 <multPointMatrix+0x440>
4100162c:	ffff87b7          	lui	a5,0xffff8
41001630:	00f507b3          	add	a5,a0,a5
41001634:	00a7b533          	sltu	a0,a5,a0
41001638:	fff80693          	addi	a3,a6,-1
4100163c:	00d506b3          	add	a3,a0,a3
41001640:	d01ff06f          	j	41001340 <multPointMatrix+0x478>
41001644:	d007dae3          	bgez	a5,41001358 <multPointMatrix+0x490>
41001648:	800007b7          	lui	a5,0x80000
4100164c:	fff7c793          	not	a5,a5
41001650:	d15ff06f          	j	41001364 <multPointMatrix+0x49c>
41001654:	800006b7          	lui	a3,0x80000
41001658:	d0d7f6e3          	bgeu	a5,a3,41001364 <multPointMatrix+0x49c>
4100165c:	800007b7          	lui	a5,0x80000
41001660:	d05ff06f          	j	41001364 <multPointMatrix+0x49c>
41001664:	00074863          	bltz	a4,41001674 <multPointMatrix+0x7ac>
41001668:	80000537          	lui	a0,0x80000
4100166c:	fff54513          	not	a0,a0
41001670:	0440006f          	j	410016b4 <multPointMatrix+0x7ec>
41001674:	80000537          	lui	a0,0x80000
41001678:	03c0006f          	j	410016b4 <multPointMatrix+0x7ec>
4100167c:	0806c263          	bltz	a3,41001700 <multPointMatrix+0x838>
41001680:	40a58533          	sub	a0,a1,a0
41001684:	00a5b5b3          	sltu	a1,a1,a0
41001688:	40f687b3          	sub	a5,a3,a5
4100168c:	40b785b3          	sub	a1,a5,a1
41001690:	00098613          	mv	a2,s3
41001694:	41f9d693          	srai	a3,s3,0x1f
41001698:	784010ef          	jal	ra,41002e1c <__divdi3>
4100169c:	00050713          	mv	a4,a0
410016a0:	06b04663          	bgtz	a1,4100170c <multPointMatrix+0x844>
410016a4:	06058263          	beqz	a1,41001708 <multPointMatrix+0x840>
410016a8:	fff00793          	li	a5,-1
410016ac:	06f5ca63          	blt	a1,a5,41001720 <multPointMatrix+0x858>
410016b0:	06f58463          	beq	a1,a5,41001718 <multPointMatrix+0x850>
410016b4:	00a92023          	sw	a0,0(s2)
410016b8:	06098863          	beqz	s3,41001728 <multPointMatrix+0x860>
410016bc:	4104d713          	srai	a4,s1,0x10
410016c0:	01049593          	slli	a1,s1,0x10
410016c4:	41f9d693          	srai	a3,s3,0x1f
410016c8:	0136c7b3          	xor	a5,a3,s3
410016cc:	40d787b3          	sub	a5,a5,a3
410016d0:	41f7d693          	srai	a3,a5,0x1f
410016d4:	01f69693          	slli	a3,a3,0x1f
410016d8:	0017d513          	srli	a0,a5,0x1
410016dc:	00a6e533          	or	a0,a3,a0
410016e0:	41f7d793          	srai	a5,a5,0x1f
410016e4:	0404ce63          	bltz	s1,41001740 <multPointMatrix+0x878>
410016e8:	0409cc63          	bltz	s3,41001740 <multPointMatrix+0x878>
410016ec:	00a58533          	add	a0,a1,a0
410016f0:	00b535b3          	sltu	a1,a0,a1
410016f4:	00f707b3          	add	a5,a4,a5
410016f8:	00f585b3          	add	a1,a1,a5
410016fc:	0580006f          	j	41001754 <multPointMatrix+0x88c>
41001700:	f809d0e3          	bgez	s3,41001680 <multPointMatrix+0x7b8>
41001704:	cadff06f          	j	410013b0 <multPointMatrix+0x4e8>
41001708:	fa0550e3          	bgez	a0,410016a8 <multPointMatrix+0x7e0>
4100170c:	80000537          	lui	a0,0x80000
41001710:	fff54513          	not	a0,a0
41001714:	fa1ff06f          	j	410016b4 <multPointMatrix+0x7ec>
41001718:	800007b7          	lui	a5,0x80000
4100171c:	f8f77ce3          	bgeu	a4,a5,410016b4 <multPointMatrix+0x7ec>
41001720:	80000537          	lui	a0,0x80000
41001724:	f91ff06f          	j	410016b4 <multPointMatrix+0x7ec>
41001728:	0004c863          	bltz	s1,41001738 <multPointMatrix+0x870>
4100172c:	80000537          	lui	a0,0x80000
41001730:	fff54513          	not	a0,a0
41001734:	0440006f          	j	41001778 <multPointMatrix+0x8b0>
41001738:	80000537          	lui	a0,0x80000
4100173c:	03c0006f          	j	41001778 <multPointMatrix+0x8b0>
41001740:	08074263          	bltz	a4,410017c4 <multPointMatrix+0x8fc>
41001744:	40a58533          	sub	a0,a1,a0
41001748:	00a5b5b3          	sltu	a1,a1,a0
4100174c:	40f707b3          	sub	a5,a4,a5
41001750:	40b785b3          	sub	a1,a5,a1
41001754:	00098613          	mv	a2,s3
41001758:	41f9d693          	srai	a3,s3,0x1f
4100175c:	6c0010ef          	jal	ra,41002e1c <__divdi3>
41001760:	00050713          	mv	a4,a0
41001764:	06b04663          	bgtz	a1,410017d0 <multPointMatrix+0x908>
41001768:	06058263          	beqz	a1,410017cc <multPointMatrix+0x904>
4100176c:	fff00793          	li	a5,-1
41001770:	06f5ca63          	blt	a1,a5,410017e4 <multPointMatrix+0x91c>
41001774:	06f58463          	beq	a1,a5,410017dc <multPointMatrix+0x914>
41001778:	00a92223          	sw	a0,4(s2)
4100177c:	06098863          	beqz	s3,410017ec <multPointMatrix+0x924>
41001780:	41045713          	srai	a4,s0,0x10
41001784:	01041593          	slli	a1,s0,0x10
41001788:	41f9d693          	srai	a3,s3,0x1f
4100178c:	0136c7b3          	xor	a5,a3,s3
41001790:	40d787b3          	sub	a5,a5,a3
41001794:	41f7d693          	srai	a3,a5,0x1f
41001798:	01f69693          	slli	a3,a3,0x1f
4100179c:	0017d513          	srli	a0,a5,0x1
410017a0:	00a6e533          	or	a0,a3,a0
410017a4:	41f7d793          	srai	a5,a5,0x1f
410017a8:	04044e63          	bltz	s0,41001804 <multPointMatrix+0x93c>
410017ac:	0409cc63          	bltz	s3,41001804 <multPointMatrix+0x93c>
410017b0:	00a58533          	add	a0,a1,a0
410017b4:	00b535b3          	sltu	a1,a0,a1
410017b8:	00f707b3          	add	a5,a4,a5
410017bc:	00f585b3          	add	a1,a1,a5
410017c0:	0580006f          	j	41001818 <multPointMatrix+0x950>
410017c4:	f809d0e3          	bgez	s3,41001744 <multPointMatrix+0x87c>
410017c8:	f25ff06f          	j	410016ec <multPointMatrix+0x824>
410017cc:	fa0550e3          	bgez	a0,4100176c <multPointMatrix+0x8a4>
410017d0:	80000537          	lui	a0,0x80000
410017d4:	fff54513          	not	a0,a0
410017d8:	fa1ff06f          	j	41001778 <multPointMatrix+0x8b0>
410017dc:	800007b7          	lui	a5,0x80000
410017e0:	f8f77ce3          	bgeu	a4,a5,41001778 <multPointMatrix+0x8b0>
410017e4:	80000537          	lui	a0,0x80000
410017e8:	f91ff06f          	j	41001778 <multPointMatrix+0x8b0>
410017ec:	00044863          	bltz	s0,410017fc <multPointMatrix+0x934>
410017f0:	80000537          	lui	a0,0x80000
410017f4:	fff54513          	not	a0,a0
410017f8:	0440006f          	j	4100183c <multPointMatrix+0x974>
410017fc:	80000537          	lui	a0,0x80000
41001800:	03c0006f          	j	4100183c <multPointMatrix+0x974>
41001804:	04074c63          	bltz	a4,4100185c <multPointMatrix+0x994>
41001808:	40a58533          	sub	a0,a1,a0
4100180c:	00a5b5b3          	sltu	a1,a1,a0
41001810:	40f707b3          	sub	a5,a4,a5
41001814:	40b785b3          	sub	a1,a5,a1
41001818:	00098613          	mv	a2,s3
4100181c:	41f9d693          	srai	a3,s3,0x1f
41001820:	5fc010ef          	jal	ra,41002e1c <__divdi3>
41001824:	00050713          	mv	a4,a0
41001828:	04b04063          	bgtz	a1,41001868 <multPointMatrix+0x9a0>
4100182c:	02058c63          	beqz	a1,41001864 <multPointMatrix+0x99c>
41001830:	fff00793          	li	a5,-1
41001834:	04f5c463          	blt	a1,a5,4100187c <multPointMatrix+0x9b4>
41001838:	02f58e63          	beq	a1,a5,41001874 <multPointMatrix+0x9ac>
4100183c:	00a92423          	sw	a0,8(s2)
41001840:	01c12083          	lw	ra,28(sp)
41001844:	01812403          	lw	s0,24(sp)
41001848:	01412483          	lw	s1,20(sp)
4100184c:	01012903          	lw	s2,16(sp)
41001850:	00c12983          	lw	s3,12(sp)
41001854:	02010113          	addi	sp,sp,32
41001858:	00008067          	ret
4100185c:	fa09d6e3          	bgez	s3,41001808 <multPointMatrix+0x940>
41001860:	f51ff06f          	j	410017b0 <multPointMatrix+0x8e8>
41001864:	fc0556e3          	bgez	a0,41001830 <multPointMatrix+0x968>
41001868:	80000537          	lui	a0,0x80000
4100186c:	fff54513          	not	a0,a0
41001870:	fcdff06f          	j	4100183c <multPointMatrix+0x974>
41001874:	800007b7          	lui	a5,0x80000
41001878:	fcf772e3          	bgeu	a4,a5,4100183c <multPointMatrix+0x974>
4100187c:	80000537          	lui	a0,0x80000
41001880:	fbdff06f          	j	4100183c <multPointMatrix+0x974>

41001884 <testprint>:
41001884:	ff010113          	addi	sp,sp,-16
41001888:	00112623          	sw	ra,12(sp)
4100188c:	00812423          	sw	s0,8(sp)
41001890:	00912223          	sw	s1,4(sp)
41001894:	00050493          	mv	s1,a0
41001898:	00058413          	mv	s0,a1
4100189c:	41005537          	lui	a0,0x41005
410018a0:	9ec50513          	addi	a0,a0,-1556 # 410049ec <angle+0xc>
410018a4:	835fe0ef          	jal	ra,410000d8 <_puts>
410018a8:	0084a503          	lw	a0,8(s1) # 80000008 <_end+0x3ef976bc>
410018ac:	d91fe0ef          	jal	ra,4100063c <put_fixed>
410018b0:	41005537          	lui	a0,0x41005
410018b4:	9f850513          	addi	a0,a0,-1544 # 410049f8 <angle+0x18>
410018b8:	821fe0ef          	jal	ra,410000d8 <_puts>
410018bc:	00842503          	lw	a0,8(s0) # 80000008 <_end+0x3ef976bc>
410018c0:	d7dfe0ef          	jal	ra,4100063c <put_fixed>
410018c4:	41005537          	lui	a0,0x41005
410018c8:	a4850513          	addi	a0,a0,-1464 # 41004a48 <angle+0x68>
410018cc:	80dfe0ef          	jal	ra,410000d8 <_puts>
410018d0:	00c12083          	lw	ra,12(sp)
410018d4:	00812403          	lw	s0,8(sp)
410018d8:	00412483          	lw	s1,4(sp)
410018dc:	01010113          	addi	sp,sp,16
410018e0:	00008067          	ret

410018e4 <render>:
410018e4:	e9010113          	addi	sp,sp,-368
410018e8:	16112623          	sw	ra,364(sp)
410018ec:	16812423          	sw	s0,360(sp)
410018f0:	16912223          	sw	s1,356(sp)
410018f4:	17212023          	sw	s2,352(sp)
410018f8:	15312e23          	sw	s3,348(sp)
410018fc:	15412c23          	sw	s4,344(sp)
41001900:	15512a23          	sw	s5,340(sp)
41001904:	15612823          	sw	s6,336(sp)
41001908:	41005537          	lui	a0,0x41005
4100190c:	a0050513          	addi	a0,a0,-1536 # 41004a00 <angle+0x20>
41001910:	fc8fe0ef          	jal	ra,410000d8 <_puts>
41001914:	410057b7          	lui	a5,0x41005
41001918:	b7478793          	addi	a5,a5,-1164 # 41004b74 <angle+0x194>
4100191c:	11010713          	addi	a4,sp,272
41001920:	04078813          	addi	a6,a5,64
41001924:	0007a503          	lw	a0,0(a5)
41001928:	0047a583          	lw	a1,4(a5)
4100192c:	0087a603          	lw	a2,8(a5)
41001930:	00c7a683          	lw	a3,12(a5)
41001934:	00a72023          	sw	a0,0(a4) # 80000000 <_end+0x3ef976b4>
41001938:	00b72223          	sw	a1,4(a4)
4100193c:	00c72423          	sw	a2,8(a4)
41001940:	00d72623          	sw	a3,12(a4)
41001944:	01078793          	addi	a5,a5,16
41001948:	01070713          	addi	a4,a4,16
4100194c:	fd079ce3          	bne	a5,a6,41001924 <render+0x40>
41001950:	410057b7          	lui	a5,0x41005
41001954:	b7478793          	addi	a5,a5,-1164 # 41004b74 <angle+0x194>
41001958:	0d010713          	addi	a4,sp,208
4100195c:	04078813          	addi	a6,a5,64
41001960:	0007a503          	lw	a0,0(a5)
41001964:	0047a583          	lw	a1,4(a5)
41001968:	0087a603          	lw	a2,8(a5)
4100196c:	00c7a683          	lw	a3,12(a5)
41001970:	00a72023          	sw	a0,0(a4)
41001974:	00b72223          	sw	a1,4(a4)
41001978:	00c72423          	sw	a2,8(a4)
4100197c:	00d72623          	sw	a3,12(a4)
41001980:	01078793          	addi	a5,a5,16
41001984:	01070713          	addi	a4,a4,16
41001988:	fd079ce3          	bne	a5,a6,41001960 <render+0x7c>
4100198c:	410057b7          	lui	a5,0x41005
41001990:	9e07aa03          	lw	s4,-1568(a5) # 410049e0 <angle>
41001994:	0180006f          	j	410019ac <render+0xc8>
41001998:	410057b7          	lui	a5,0x41005
4100199c:	dd87a583          	lw	a1,-552(a5) # 41004dd8 <__clz_tab+0x104>
410019a0:	000a0513          	mv	a0,s4
410019a4:	684020ef          	jal	ra,41004028 <__subsf3>
410019a8:	00050a13          	mv	s4,a0
410019ac:	410057b7          	lui	a5,0x41005
410019b0:	ddc7a583          	lw	a1,-548(a5) # 41004ddc <__clz_tab+0x108>
410019b4:	000a0513          	mv	a0,s4
410019b8:	198020ef          	jal	ra,41003b50 <__gesf2>
410019bc:	fca04ee3          	bgtz	a0,41001998 <render+0xb4>
410019c0:	0180006f          	j	410019d8 <render+0xf4>
410019c4:	410057b7          	lui	a5,0x41005
410019c8:	dd87a583          	lw	a1,-552(a5) # 41004dd8 <__clz_tab+0x104>
410019cc:	000a0513          	mv	a0,s4
410019d0:	139010ef          	jal	ra,41003308 <__addsf3>
410019d4:	00050a13          	mv	s4,a0
410019d8:	410057b7          	lui	a5,0x41005
410019dc:	de07a583          	lw	a1,-544(a5) # 41004de0 <__clz_tab+0x10c>
410019e0:	000a0513          	mv	a0,s4
410019e4:	220020ef          	jal	ra,41003c04 <__lesf2>
410019e8:	fc054ee3          	bltz	a0,410019c4 <render+0xe0>
410019ec:	00000413          	li	s0,0
410019f0:	00000913          	li	s2,0
410019f4:	00090493          	mv	s1,s2
410019f8:	410057b7          	lui	a5,0x41005
410019fc:	dd47aa83          	lw	s5,-556(a5) # 41004dd4 <__clz_tab+0x100>
41001a00:	0640006f          	j	41001a64 <render+0x180>
41001a04:	00048593          	mv	a1,s1
41001a08:	00098513          	mv	a0,s3
41001a0c:	2ac020ef          	jal	ra,41003cb8 <__mulsf3>
41001a10:	00050593          	mv	a1,a0
41001a14:	000a8513          	mv	a0,s5
41001a18:	0f1010ef          	jal	ra,41003308 <__addsf3>
41001a1c:	00050b13          	mv	s6,a0
41001a20:	000a8593          	mv	a1,s5
41001a24:	00098513          	mv	a0,s3
41001a28:	290020ef          	jal	ra,41003cb8 <__mulsf3>
41001a2c:	00050593          	mv	a1,a0
41001a30:	00048513          	mv	a0,s1
41001a34:	5f4020ef          	jal	ra,41004028 <__subsf3>
41001a38:	00050493          	mv	s1,a0
41001a3c:	00241793          	slli	a5,s0,0x2
41001a40:	41005737          	lui	a4,0x41005
41001a44:	b7470713          	addi	a4,a4,-1164 # 41004b74 <angle+0x194>
41001a48:	00f707b3          	add	a5,a4,a5
41001a4c:	0407a583          	lw	a1,64(a5)
41001a50:	00090513          	mv	a0,s2
41001a54:	5d4020ef          	jal	ra,41004028 <__subsf3>
41001a58:	00050913          	mv	s2,a0
41001a5c:	000b0a93          	mv	s5,s6
41001a60:	00140413          	addi	s0,s0,1
41001a64:	01700793          	li	a5,23
41001a68:	0887ca63          	blt	a5,s0,41001afc <render+0x218>
41001a6c:	00100513          	li	a0,1
41001a70:	00851533          	sll	a0,a0,s0
41001a74:	2d5020ef          	jal	ra,41004548 <__floatsisf>
41001a78:	00050593          	mv	a1,a0
41001a7c:	410057b7          	lui	a5,0x41005
41001a80:	de47a503          	lw	a0,-540(a5) # 41004de4 <__clz_tab+0x110>
41001a84:	515010ef          	jal	ra,41003798 <__divsf3>
41001a88:	00050993          	mv	s3,a0
41001a8c:	00090593          	mv	a1,s2
41001a90:	000a0513          	mv	a0,s4
41001a94:	0bc020ef          	jal	ra,41003b50 <__gesf2>
41001a98:	f6a056e3          	blez	a0,41001a04 <render+0x120>
41001a9c:	00048593          	mv	a1,s1
41001aa0:	00098513          	mv	a0,s3
41001aa4:	214020ef          	jal	ra,41003cb8 <__mulsf3>
41001aa8:	00050593          	mv	a1,a0
41001aac:	000a8513          	mv	a0,s5
41001ab0:	578020ef          	jal	ra,41004028 <__subsf3>
41001ab4:	00050b13          	mv	s6,a0
41001ab8:	000a8593          	mv	a1,s5
41001abc:	00098513          	mv	a0,s3
41001ac0:	1f8020ef          	jal	ra,41003cb8 <__mulsf3>
41001ac4:	00050593          	mv	a1,a0
41001ac8:	00048513          	mv	a0,s1
41001acc:	03d010ef          	jal	ra,41003308 <__addsf3>
41001ad0:	00050493          	mv	s1,a0
41001ad4:	00241793          	slli	a5,s0,0x2
41001ad8:	41005737          	lui	a4,0x41005
41001adc:	b7470713          	addi	a4,a4,-1164 # 41004b74 <angle+0x194>
41001ae0:	00f707b3          	add	a5,a4,a5
41001ae4:	0407a583          	lw	a1,64(a5)
41001ae8:	00090513          	mv	a0,s2
41001aec:	01d010ef          	jal	ra,41003308 <__addsf3>
41001af0:	00050913          	mv	s2,a0
41001af4:	000b0a93          	mv	s5,s6
41001af8:	f69ff06f          	j	41001a60 <render+0x17c>
41001afc:	410057b7          	lui	a5,0x41005
41001b00:	de87a583          	lw	a1,-536(a5) # 41004de8 <__clz_tab+0x114>
41001b04:	000a8513          	mv	a0,s5
41001b08:	1b0020ef          	jal	ra,41003cb8 <__mulsf3>
41001b0c:	1c9020ef          	jal	ra,410044d4 <__fixsfsi>
41001b10:	10a12823          	sw	a0,272(sp)
41001b14:	410057b7          	lui	a5,0x41005
41001b18:	9e07aa03          	lw	s4,-1568(a5) # 410049e0 <angle>
41001b1c:	0180006f          	j	41001b34 <render+0x250>
41001b20:	410057b7          	lui	a5,0x41005
41001b24:	dd87a583          	lw	a1,-552(a5) # 41004dd8 <__clz_tab+0x104>
41001b28:	000a0513          	mv	a0,s4
41001b2c:	4fc020ef          	jal	ra,41004028 <__subsf3>
41001b30:	00050a13          	mv	s4,a0
41001b34:	410057b7          	lui	a5,0x41005
41001b38:	ddc7a583          	lw	a1,-548(a5) # 41004ddc <__clz_tab+0x108>
41001b3c:	000a0513          	mv	a0,s4
41001b40:	010020ef          	jal	ra,41003b50 <__gesf2>
41001b44:	fca04ee3          	bgtz	a0,41001b20 <render+0x23c>
41001b48:	0180006f          	j	41001b60 <render+0x27c>
41001b4c:	410057b7          	lui	a5,0x41005
41001b50:	dd87a583          	lw	a1,-552(a5) # 41004dd8 <__clz_tab+0x104>
41001b54:	000a0513          	mv	a0,s4
41001b58:	7b0010ef          	jal	ra,41003308 <__addsf3>
41001b5c:	00050a13          	mv	s4,a0
41001b60:	410057b7          	lui	a5,0x41005
41001b64:	de07a583          	lw	a1,-544(a5) # 41004de0 <__clz_tab+0x10c>
41001b68:	000a0513          	mv	a0,s4
41001b6c:	098020ef          	jal	ra,41003c04 <__lesf2>
41001b70:	fc054ee3          	bltz	a0,41001b4c <render+0x268>
41001b74:	00000493          	li	s1,0
41001b78:	00000913          	li	s2,0
41001b7c:	00090413          	mv	s0,s2
41001b80:	410057b7          	lui	a5,0x41005
41001b84:	dd47aa83          	lw	s5,-556(a5) # 41004dd4 <__clz_tab+0x100>
41001b88:	0640006f          	j	41001bec <render+0x308>
41001b8c:	00040593          	mv	a1,s0
41001b90:	00098513          	mv	a0,s3
41001b94:	124020ef          	jal	ra,41003cb8 <__mulsf3>
41001b98:	00050593          	mv	a1,a0
41001b9c:	000a8513          	mv	a0,s5
41001ba0:	768010ef          	jal	ra,41003308 <__addsf3>
41001ba4:	00050b13          	mv	s6,a0
41001ba8:	000a8593          	mv	a1,s5
41001bac:	00098513          	mv	a0,s3
41001bb0:	108020ef          	jal	ra,41003cb8 <__mulsf3>
41001bb4:	00050593          	mv	a1,a0
41001bb8:	00040513          	mv	a0,s0
41001bbc:	46c020ef          	jal	ra,41004028 <__subsf3>
41001bc0:	00050413          	mv	s0,a0
41001bc4:	00249793          	slli	a5,s1,0x2
41001bc8:	41005737          	lui	a4,0x41005
41001bcc:	b7470713          	addi	a4,a4,-1164 # 41004b74 <angle+0x194>
41001bd0:	00f707b3          	add	a5,a4,a5
41001bd4:	0407a583          	lw	a1,64(a5)
41001bd8:	00090513          	mv	a0,s2
41001bdc:	44c020ef          	jal	ra,41004028 <__subsf3>
41001be0:	00050913          	mv	s2,a0
41001be4:	000b0a93          	mv	s5,s6
41001be8:	00148493          	addi	s1,s1,1
41001bec:	01700793          	li	a5,23
41001bf0:	0897ca63          	blt	a5,s1,41001c84 <render+0x3a0>
41001bf4:	00100513          	li	a0,1
41001bf8:	00951533          	sll	a0,a0,s1
41001bfc:	14d020ef          	jal	ra,41004548 <__floatsisf>
41001c00:	00050593          	mv	a1,a0
41001c04:	410057b7          	lui	a5,0x41005
41001c08:	de47a503          	lw	a0,-540(a5) # 41004de4 <__clz_tab+0x110>
41001c0c:	38d010ef          	jal	ra,41003798 <__divsf3>
41001c10:	00050993          	mv	s3,a0
41001c14:	00090593          	mv	a1,s2
41001c18:	000a0513          	mv	a0,s4
41001c1c:	735010ef          	jal	ra,41003b50 <__gesf2>
41001c20:	f6a056e3          	blez	a0,41001b8c <render+0x2a8>
41001c24:	00040593          	mv	a1,s0
41001c28:	00098513          	mv	a0,s3
41001c2c:	08c020ef          	jal	ra,41003cb8 <__mulsf3>
41001c30:	00050593          	mv	a1,a0
41001c34:	000a8513          	mv	a0,s5
41001c38:	3f0020ef          	jal	ra,41004028 <__subsf3>
41001c3c:	00050b13          	mv	s6,a0
41001c40:	000a8593          	mv	a1,s5
41001c44:	00098513          	mv	a0,s3
41001c48:	070020ef          	jal	ra,41003cb8 <__mulsf3>
41001c4c:	00050593          	mv	a1,a0
41001c50:	00040513          	mv	a0,s0
41001c54:	6b4010ef          	jal	ra,41003308 <__addsf3>
41001c58:	00050413          	mv	s0,a0
41001c5c:	00249793          	slli	a5,s1,0x2
41001c60:	41005737          	lui	a4,0x41005
41001c64:	b7470713          	addi	a4,a4,-1164 # 41004b74 <angle+0x194>
41001c68:	00f707b3          	add	a5,a4,a5
41001c6c:	0407a583          	lw	a1,64(a5)
41001c70:	00090513          	mv	a0,s2
41001c74:	694010ef          	jal	ra,41003308 <__addsf3>
41001c78:	00050913          	mv	s2,a0
41001c7c:	000b0a93          	mv	s5,s6
41001c80:	f69ff06f          	j	41001be8 <render+0x304>
41001c84:	410057b7          	lui	a5,0x41005
41001c88:	de87a583          	lw	a1,-536(a5) # 41004de8 <__clz_tab+0x114>
41001c8c:	00040513          	mv	a0,s0
41001c90:	028020ef          	jal	ra,41003cb8 <__mulsf3>
41001c94:	041020ef          	jal	ra,410044d4 <__fixsfsi>
41001c98:	40a00533          	neg	a0,a0
41001c9c:	10a12c23          	sw	a0,280(sp)
41001ca0:	410057b7          	lui	a5,0x41005
41001ca4:	9e07aa03          	lw	s4,-1568(a5) # 410049e0 <angle>
41001ca8:	0180006f          	j	41001cc0 <render+0x3dc>
41001cac:	410057b7          	lui	a5,0x41005
41001cb0:	dd87a583          	lw	a1,-552(a5) # 41004dd8 <__clz_tab+0x104>
41001cb4:	000a0513          	mv	a0,s4
41001cb8:	370020ef          	jal	ra,41004028 <__subsf3>
41001cbc:	00050a13          	mv	s4,a0
41001cc0:	410057b7          	lui	a5,0x41005
41001cc4:	ddc7a583          	lw	a1,-548(a5) # 41004ddc <__clz_tab+0x108>
41001cc8:	000a0513          	mv	a0,s4
41001ccc:	685010ef          	jal	ra,41003b50 <__gesf2>
41001cd0:	fca04ee3          	bgtz	a0,41001cac <render+0x3c8>
41001cd4:	0180006f          	j	41001cec <render+0x408>
41001cd8:	410057b7          	lui	a5,0x41005
41001cdc:	dd87a583          	lw	a1,-552(a5) # 41004dd8 <__clz_tab+0x104>
41001ce0:	000a0513          	mv	a0,s4
41001ce4:	624010ef          	jal	ra,41003308 <__addsf3>
41001ce8:	00050a13          	mv	s4,a0
41001cec:	410057b7          	lui	a5,0x41005
41001cf0:	de07a583          	lw	a1,-544(a5) # 41004de0 <__clz_tab+0x10c>
41001cf4:	000a0513          	mv	a0,s4
41001cf8:	70d010ef          	jal	ra,41003c04 <__lesf2>
41001cfc:	fc054ee3          	bltz	a0,41001cd8 <render+0x3f4>
41001d00:	00000493          	li	s1,0
41001d04:	00000913          	li	s2,0
41001d08:	00090413          	mv	s0,s2
41001d0c:	410057b7          	lui	a5,0x41005
41001d10:	dd47aa83          	lw	s5,-556(a5) # 41004dd4 <__clz_tab+0x100>
41001d14:	0640006f          	j	41001d78 <render+0x494>
41001d18:	00040593          	mv	a1,s0
41001d1c:	00098513          	mv	a0,s3
41001d20:	799010ef          	jal	ra,41003cb8 <__mulsf3>
41001d24:	00050593          	mv	a1,a0
41001d28:	000a8513          	mv	a0,s5
41001d2c:	5dc010ef          	jal	ra,41003308 <__addsf3>
41001d30:	00050b13          	mv	s6,a0
41001d34:	000a8593          	mv	a1,s5
41001d38:	00098513          	mv	a0,s3
41001d3c:	77d010ef          	jal	ra,41003cb8 <__mulsf3>
41001d40:	00050593          	mv	a1,a0
41001d44:	00040513          	mv	a0,s0
41001d48:	2e0020ef          	jal	ra,41004028 <__subsf3>
41001d4c:	00050413          	mv	s0,a0
41001d50:	00249793          	slli	a5,s1,0x2
41001d54:	41005737          	lui	a4,0x41005
41001d58:	b7470713          	addi	a4,a4,-1164 # 41004b74 <angle+0x194>
41001d5c:	00f707b3          	add	a5,a4,a5
41001d60:	0407a583          	lw	a1,64(a5)
41001d64:	00090513          	mv	a0,s2
41001d68:	2c0020ef          	jal	ra,41004028 <__subsf3>
41001d6c:	00050913          	mv	s2,a0
41001d70:	000b0a93          	mv	s5,s6
41001d74:	00148493          	addi	s1,s1,1
41001d78:	01700793          	li	a5,23
41001d7c:	0897ca63          	blt	a5,s1,41001e10 <render+0x52c>
41001d80:	00100513          	li	a0,1
41001d84:	00951533          	sll	a0,a0,s1
41001d88:	7c0020ef          	jal	ra,41004548 <__floatsisf>
41001d8c:	00050593          	mv	a1,a0
41001d90:	410057b7          	lui	a5,0x41005
41001d94:	de47a503          	lw	a0,-540(a5) # 41004de4 <__clz_tab+0x110>
41001d98:	201010ef          	jal	ra,41003798 <__divsf3>
41001d9c:	00050993          	mv	s3,a0
41001da0:	00090593          	mv	a1,s2
41001da4:	000a0513          	mv	a0,s4
41001da8:	5a9010ef          	jal	ra,41003b50 <__gesf2>
41001dac:	f6a056e3          	blez	a0,41001d18 <render+0x434>
41001db0:	00040593          	mv	a1,s0
41001db4:	00098513          	mv	a0,s3
41001db8:	701010ef          	jal	ra,41003cb8 <__mulsf3>
41001dbc:	00050593          	mv	a1,a0
41001dc0:	000a8513          	mv	a0,s5
41001dc4:	264020ef          	jal	ra,41004028 <__subsf3>
41001dc8:	00050b13          	mv	s6,a0
41001dcc:	000a8593          	mv	a1,s5
41001dd0:	00098513          	mv	a0,s3
41001dd4:	6e5010ef          	jal	ra,41003cb8 <__mulsf3>
41001dd8:	00050593          	mv	a1,a0
41001ddc:	00040513          	mv	a0,s0
41001de0:	528010ef          	jal	ra,41003308 <__addsf3>
41001de4:	00050413          	mv	s0,a0
41001de8:	00249793          	slli	a5,s1,0x2
41001dec:	41005737          	lui	a4,0x41005
41001df0:	b7470713          	addi	a4,a4,-1164 # 41004b74 <angle+0x194>
41001df4:	00f707b3          	add	a5,a4,a5
41001df8:	0407a583          	lw	a1,64(a5)
41001dfc:	00090513          	mv	a0,s2
41001e00:	508010ef          	jal	ra,41003308 <__addsf3>
41001e04:	00050913          	mv	s2,a0
41001e08:	000b0a93          	mv	s5,s6
41001e0c:	f69ff06f          	j	41001d74 <render+0x490>
41001e10:	410057b7          	lui	a5,0x41005
41001e14:	de87a583          	lw	a1,-536(a5) # 41004de8 <__clz_tab+0x114>
41001e18:	00040513          	mv	a0,s0
41001e1c:	69d010ef          	jal	ra,41003cb8 <__mulsf3>
41001e20:	6b4020ef          	jal	ra,410044d4 <__fixsfsi>
41001e24:	12a12823          	sw	a0,304(sp)
41001e28:	410057b7          	lui	a5,0x41005
41001e2c:	9e07aa03          	lw	s4,-1568(a5) # 410049e0 <angle>
41001e30:	0180006f          	j	41001e48 <render+0x564>
41001e34:	410057b7          	lui	a5,0x41005
41001e38:	dd87a583          	lw	a1,-552(a5) # 41004dd8 <__clz_tab+0x104>
41001e3c:	000a0513          	mv	a0,s4
41001e40:	1e8020ef          	jal	ra,41004028 <__subsf3>
41001e44:	00050a13          	mv	s4,a0
41001e48:	410057b7          	lui	a5,0x41005
41001e4c:	ddc7a583          	lw	a1,-548(a5) # 41004ddc <__clz_tab+0x108>
41001e50:	000a0513          	mv	a0,s4
41001e54:	4fd010ef          	jal	ra,41003b50 <__gesf2>
41001e58:	fca04ee3          	bgtz	a0,41001e34 <render+0x550>
41001e5c:	0180006f          	j	41001e74 <render+0x590>
41001e60:	410057b7          	lui	a5,0x41005
41001e64:	dd87a583          	lw	a1,-552(a5) # 41004dd8 <__clz_tab+0x104>
41001e68:	000a0513          	mv	a0,s4
41001e6c:	49c010ef          	jal	ra,41003308 <__addsf3>
41001e70:	00050a13          	mv	s4,a0
41001e74:	410057b7          	lui	a5,0x41005
41001e78:	de07a583          	lw	a1,-544(a5) # 41004de0 <__clz_tab+0x10c>
41001e7c:	000a0513          	mv	a0,s4
41001e80:	585010ef          	jal	ra,41003c04 <__lesf2>
41001e84:	fc054ee3          	bltz	a0,41001e60 <render+0x57c>
41001e88:	00000413          	li	s0,0
41001e8c:	00000913          	li	s2,0
41001e90:	00090493          	mv	s1,s2
41001e94:	410057b7          	lui	a5,0x41005
41001e98:	dd47aa83          	lw	s5,-556(a5) # 41004dd4 <__clz_tab+0x100>
41001e9c:	0640006f          	j	41001f00 <render+0x61c>
41001ea0:	00048593          	mv	a1,s1
41001ea4:	00098513          	mv	a0,s3
41001ea8:	611010ef          	jal	ra,41003cb8 <__mulsf3>
41001eac:	00050593          	mv	a1,a0
41001eb0:	000a8513          	mv	a0,s5
41001eb4:	454010ef          	jal	ra,41003308 <__addsf3>
41001eb8:	00050b13          	mv	s6,a0
41001ebc:	000a8593          	mv	a1,s5
41001ec0:	00098513          	mv	a0,s3
41001ec4:	5f5010ef          	jal	ra,41003cb8 <__mulsf3>
41001ec8:	00050593          	mv	a1,a0
41001ecc:	00048513          	mv	a0,s1
41001ed0:	158020ef          	jal	ra,41004028 <__subsf3>
41001ed4:	00050493          	mv	s1,a0
41001ed8:	00241793          	slli	a5,s0,0x2
41001edc:	41005737          	lui	a4,0x41005
41001ee0:	b7470713          	addi	a4,a4,-1164 # 41004b74 <angle+0x194>
41001ee4:	00f707b3          	add	a5,a4,a5
41001ee8:	0407a583          	lw	a1,64(a5)
41001eec:	00090513          	mv	a0,s2
41001ef0:	138020ef          	jal	ra,41004028 <__subsf3>
41001ef4:	00050913          	mv	s2,a0
41001ef8:	000b0a93          	mv	s5,s6
41001efc:	00140413          	addi	s0,s0,1
41001f00:	01700793          	li	a5,23
41001f04:	0887ca63          	blt	a5,s0,41001f98 <render+0x6b4>
41001f08:	00100513          	li	a0,1
41001f0c:	00851533          	sll	a0,a0,s0
41001f10:	638020ef          	jal	ra,41004548 <__floatsisf>
41001f14:	00050593          	mv	a1,a0
41001f18:	410057b7          	lui	a5,0x41005
41001f1c:	de47a503          	lw	a0,-540(a5) # 41004de4 <__clz_tab+0x110>
41001f20:	079010ef          	jal	ra,41003798 <__divsf3>
41001f24:	00050993          	mv	s3,a0
41001f28:	00090593          	mv	a1,s2
41001f2c:	000a0513          	mv	a0,s4
41001f30:	421010ef          	jal	ra,41003b50 <__gesf2>
41001f34:	f6a056e3          	blez	a0,41001ea0 <render+0x5bc>
41001f38:	00048593          	mv	a1,s1
41001f3c:	00098513          	mv	a0,s3
41001f40:	579010ef          	jal	ra,41003cb8 <__mulsf3>
41001f44:	00050593          	mv	a1,a0
41001f48:	000a8513          	mv	a0,s5
41001f4c:	0dc020ef          	jal	ra,41004028 <__subsf3>
41001f50:	00050b13          	mv	s6,a0
41001f54:	000a8593          	mv	a1,s5
41001f58:	00098513          	mv	a0,s3
41001f5c:	55d010ef          	jal	ra,41003cb8 <__mulsf3>
41001f60:	00050593          	mv	a1,a0
41001f64:	00048513          	mv	a0,s1
41001f68:	3a0010ef          	jal	ra,41003308 <__addsf3>
41001f6c:	00050493          	mv	s1,a0
41001f70:	00241793          	slli	a5,s0,0x2
41001f74:	41005737          	lui	a4,0x41005
41001f78:	b7470713          	addi	a4,a4,-1164 # 41004b74 <angle+0x194>
41001f7c:	00f707b3          	add	a5,a4,a5
41001f80:	0407a583          	lw	a1,64(a5)
41001f84:	00090513          	mv	a0,s2
41001f88:	380010ef          	jal	ra,41003308 <__addsf3>
41001f8c:	00050913          	mv	s2,a0
41001f90:	000b0a93          	mv	s5,s6
41001f94:	f69ff06f          	j	41001efc <render+0x618>
41001f98:	410054b7          	lui	s1,0x41005
41001f9c:	de84a583          	lw	a1,-536(s1) # 41004de8 <__clz_tab+0x114>
41001fa0:	000a8513          	mv	a0,s5
41001fa4:	515010ef          	jal	ra,41003cb8 <__mulsf3>
41001fa8:	52c020ef          	jal	ra,410044d4 <__fixsfsi>
41001fac:	12a12c23          	sw	a0,312(sp)
41001fb0:	fffc07b7          	lui	a5,0xfffc0
41001fb4:	10f12423          	sw	a5,264(sp)
41001fb8:	41005537          	lui	a0,0x41005
41001fbc:	a1450513          	addi	a0,a0,-1516 # 41004a14 <angle+0x34>
41001fc0:	918fe0ef          	jal	ra,410000d8 <_puts>
41001fc4:	41005437          	lui	s0,0x41005
41001fc8:	410057b7          	lui	a5,0x41005
41001fcc:	dec7a583          	lw	a1,-532(a5) # 41004dec <__clz_tab+0x118>
41001fd0:	9e042503          	lw	a0,-1568(s0) # 410049e0 <angle>
41001fd4:	4e5010ef          	jal	ra,41003cb8 <__mulsf3>
41001fd8:	410057b7          	lui	a5,0x41005
41001fdc:	ddc7a583          	lw	a1,-548(a5) # 41004ddc <__clz_tab+0x108>
41001fe0:	7b8010ef          	jal	ra,41003798 <__divsf3>
41001fe4:	de84a583          	lw	a1,-536(s1)
41001fe8:	4d1010ef          	jal	ra,41003cb8 <__mulsf3>
41001fec:	4e8020ef          	jal	ra,410044d4 <__fixsfsi>
41001ff0:	e4cfe0ef          	jal	ra,4100063c <put_fixed>
41001ff4:	41005537          	lui	a0,0x41005
41001ff8:	a4850513          	addi	a0,a0,-1464 # 41004a48 <angle+0x68>
41001ffc:	8dcfe0ef          	jal	ra,410000d8 <_puts>
41002000:	9e042403          	lw	s0,-1568(s0)
41002004:	410057b7          	lui	a5,0x41005
41002008:	df07a583          	lw	a1,-528(a5) # 41004df0 <__clz_tab+0x11c>
4100200c:	00040513          	mv	a0,s0
41002010:	341010ef          	jal	ra,41003b50 <__gesf2>
41002014:	0a054263          	bltz	a0,410020b8 <render+0x7d4>
41002018:	41005737          	lui	a4,0x41005
4100201c:	410057b7          	lui	a5,0x41005
41002020:	df472703          	lw	a4,-524(a4) # 41004df4 <__clz_tab+0x120>
41002024:	9ee7a023          	sw	a4,-1568(a5) # 410049e0 <angle>
41002028:	410057b7          	lui	a5,0x41005
4100202c:	b7478793          	addi	a5,a5,-1164 # 41004b74 <angle+0x194>
41002030:	09010713          	addi	a4,sp,144
41002034:	04078813          	addi	a6,a5,64
41002038:	0007a503          	lw	a0,0(a5)
4100203c:	0047a583          	lw	a1,4(a5)
41002040:	0087a603          	lw	a2,8(a5)
41002044:	00c7a683          	lw	a3,12(a5)
41002048:	00a72023          	sw	a0,0(a4)
4100204c:	00b72223          	sw	a1,4(a4)
41002050:	00c72423          	sw	a2,8(a4)
41002054:	00d72623          	sw	a3,12(a4)
41002058:	01078793          	addi	a5,a5,16
4100205c:	01070713          	addi	a4,a4,16
41002060:	fd079ce3          	bne	a5,a6,41002038 <render+0x754>
41002064:	08010893          	addi	a7,sp,128
41002068:	08410813          	addi	a6,sp,132
4100206c:	08810793          	addi	a5,sp,136
41002070:	08c10713          	addi	a4,sp,140
41002074:	006406b7          	lui	a3,0x640
41002078:	00002437          	lui	s0,0x2
4100207c:	99940613          	addi	a2,s0,-1639 # 1999 <STACK_SIZE-0x1e667>
41002080:	000155b7          	lui	a1,0x15
41002084:	55558593          	addi	a1,a1,1365 # 15555 <STACK_SIZE-0xaaab>
41002088:	005a0537          	lui	a0,0x5a0
4100208c:	e1cfe0ef          	jal	ra,410006a8 <gluPerspective>
41002090:	09010813          	addi	a6,sp,144
41002094:	006407b7          	lui	a5,0x640
41002098:	99940713          	addi	a4,s0,-1639
4100209c:	08012683          	lw	a3,128(sp)
410020a0:	08412603          	lw	a2,132(sp)
410020a4:	08812583          	lw	a1,136(sp)
410020a8:	08c12503          	lw	a0,140(sp)
410020ac:	f2cfe0ef          	jal	ra,410007d8 <glFrustum>
410020b0:	00000413          	li	s0,0
410020b4:	0f40006f          	j	410021a8 <render+0x8c4>
410020b8:	410057b7          	lui	a5,0x41005
410020bc:	df87a583          	lw	a1,-520(a5) # 41004df8 <__clz_tab+0x124>
410020c0:	00040513          	mv	a0,s0
410020c4:	244010ef          	jal	ra,41003308 <__addsf3>
410020c8:	410057b7          	lui	a5,0x41005
410020cc:	9ea7a023          	sw	a0,-1568(a5) # 410049e0 <angle>
410020d0:	f59ff06f          	j	41002028 <render+0x744>
410020d4:	410057b7          	lui	a5,0x41005
410020d8:	82078793          	addi	a5,a5,-2016 # 41004820 <g_vertex_buffer_data>
410020dc:	00241713          	slli	a4,s0,0x2
410020e0:	00e78733          	add	a4,a5,a4
410020e4:	00072603          	lw	a2,0(a4)
410020e8:	00c12823          	sw	a2,16(sp)
410020ec:	00140713          	addi	a4,s0,1
410020f0:	00271713          	slli	a4,a4,0x2
410020f4:	00e78733          	add	a4,a5,a4
410020f8:	00072683          	lw	a3,0(a4)
410020fc:	00d12a23          	sw	a3,20(sp)
41002100:	00240713          	addi	a4,s0,2
41002104:	00271713          	slli	a4,a4,0x2
41002108:	00e787b3          	add	a5,a5,a4
4100210c:	0007a783          	lw	a5,0(a5)
41002110:	00f12c23          	sw	a5,24(sp)
41002114:	00012e23          	sw	zero,28(sp)
41002118:	02012023          	sw	zero,32(sp)
4100211c:	02012223          	sw	zero,36(sp)
41002120:	02012423          	sw	zero,40(sp)
41002124:	02012623          	sw	zero,44(sp)
41002128:	02012823          	sw	zero,48(sp)
4100212c:	02012a23          	sw	zero,52(sp)
41002130:	02012c23          	sw	zero,56(sp)
41002134:	02012e23          	sw	zero,60(sp)
41002138:	00c12023          	sw	a2,0(sp)
4100213c:	00d12223          	sw	a3,4(sp)
41002140:	00f12423          	sw	a5,8(sp)
41002144:	11010613          	addi	a2,sp,272
41002148:	01c10593          	addi	a1,sp,28
4100214c:	00010513          	mv	a0,sp
41002150:	d79fe0ef          	jal	ra,41000ec8 <multPointMatrix>
41002154:	01c12783          	lw	a5,28(sp)
41002158:	00f12023          	sw	a5,0(sp)
4100215c:	02012783          	lw	a5,32(sp)
41002160:	00f12223          	sw	a5,4(sp)
41002164:	02412783          	lw	a5,36(sp)
41002168:	00f12423          	sw	a5,8(sp)
4100216c:	0d010613          	addi	a2,sp,208
41002170:	02810593          	addi	a1,sp,40
41002174:	00010513          	mv	a0,sp
41002178:	d51fe0ef          	jal	ra,41000ec8 <multPointMatrix>
4100217c:	02812783          	lw	a5,40(sp)
41002180:	00f12023          	sw	a5,0(sp)
41002184:	02c12783          	lw	a5,44(sp)
41002188:	00f12223          	sw	a5,4(sp)
4100218c:	03012783          	lw	a5,48(sp)
41002190:	00f12423          	sw	a5,8(sp)
41002194:	09010613          	addi	a2,sp,144
41002198:	03410593          	addi	a1,sp,52
4100219c:	00010513          	mv	a0,sp
410021a0:	d29fe0ef          	jal	ra,41000ec8 <multPointMatrix>
410021a4:	00340413          	addi	s0,s0,3
410021a8:	06b00793          	li	a5,107
410021ac:	f287f4e3          	bgeu	a5,s0,410020d4 <render+0x7f0>
410021b0:	410497b7          	lui	a5,0x41049
410021b4:	9407a423          	sw	zero,-1720(a5) # 41048948 <g_gpu_fence_var>
410021b8:	410057b7          	lui	a5,0x41005
410021bc:	e0078793          	addi	a5,a5,-512 # 41004e00 <g_gpu_driver>
410021c0:	0047a703          	lw	a4,4(a5)
410021c4:	0087a683          	lw	a3,8(a5)
410021c8:	00d77733          	and	a4,a4,a3
410021cc:	0007a683          	lw	a3,0(a5)
410021d0:	ffc77713          	andi	a4,a4,-4
410021d4:	00e68733          	add	a4,a3,a4
410021d8:	070006b7          	lui	a3,0x7000
410021dc:	01168693          	addi	a3,a3,17 # 7000011 <STACK_SIZE+0x6fe0011>
410021e0:	00d72023          	sw	a3,0(a4)
410021e4:	0047a703          	lw	a4,4(a5)
410021e8:	00470713          	addi	a4,a4,4
410021ec:	0087a683          	lw	a3,8(a5)
410021f0:	00d77733          	and	a4,a4,a3
410021f4:	00e7a223          	sw	a4,4(a5)
410021f8:	00d77733          	and	a4,a4,a3
410021fc:	0007a683          	lw	a3,0(a5)
41002200:	ffc77713          	andi	a4,a4,-4
41002204:	00e68733          	add	a4,a3,a4
41002208:	00072023          	sw	zero,0(a4)
4100220c:	0047a703          	lw	a4,4(a5)
41002210:	00470713          	addi	a4,a4,4
41002214:	0087a683          	lw	a3,8(a5)
41002218:	00d77733          	and	a4,a4,a3
4100221c:	00e7a223          	sw	a4,4(a5)
41002220:	00000693          	li	a3,0
41002224:	0500006f          	j	41002274 <render+0x990>
41002228:	00269793          	slli	a5,a3,0x2
4100222c:	15010713          	addi	a4,sp,336
41002230:	00f707b3          	add	a5,a4,a5
41002234:	fc07a583          	lw	a1,-64(a5)
41002238:	410057b7          	lui	a5,0x41005
4100223c:	e0078793          	addi	a5,a5,-512 # 41004e00 <g_gpu_driver>
41002240:	0047a703          	lw	a4,4(a5)
41002244:	0087a603          	lw	a2,8(a5)
41002248:	00c77733          	and	a4,a4,a2
4100224c:	0007a603          	lw	a2,0(a5)
41002250:	ffc77713          	andi	a4,a4,-4
41002254:	00e60733          	add	a4,a2,a4
41002258:	00b72023          	sw	a1,0(a4)
4100225c:	0047a703          	lw	a4,4(a5)
41002260:	00470713          	addi	a4,a4,4
41002264:	0087a603          	lw	a2,8(a5)
41002268:	00c77733          	and	a4,a4,a2
4100226c:	00e7a223          	sw	a4,4(a5)
41002270:	00168693          	addi	a3,a3,1
41002274:	00f00793          	li	a5,15
41002278:	fad7d8e3          	bge	a5,a3,41002228 <render+0x944>
4100227c:	410057b7          	lui	a5,0x41005
41002280:	e0078793          	addi	a5,a5,-512 # 41004e00 <g_gpu_driver>
41002284:	0047a703          	lw	a4,4(a5)
41002288:	0087a683          	lw	a3,8(a5)
4100228c:	00d77733          	and	a4,a4,a3
41002290:	0007a683          	lw	a3,0(a5)
41002294:	ffc77713          	andi	a4,a4,-4
41002298:	00e68733          	add	a4,a3,a4
4100229c:	070006b7          	lui	a3,0x7000
410022a0:	01168693          	addi	a3,a3,17 # 7000011 <STACK_SIZE+0x6fe0011>
410022a4:	00d72023          	sw	a3,0(a4)
410022a8:	0047a703          	lw	a4,4(a5)
410022ac:	00470713          	addi	a4,a4,4
410022b0:	0087a683          	lw	a3,8(a5)
410022b4:	00d77733          	and	a4,a4,a3
410022b8:	00e7a223          	sw	a4,4(a5)
410022bc:	00d77733          	and	a4,a4,a3
410022c0:	0007a683          	lw	a3,0(a5)
410022c4:	ffc77713          	andi	a4,a4,-4
410022c8:	00e68733          	add	a4,a3,a4
410022cc:	00100693          	li	a3,1
410022d0:	00d72023          	sw	a3,0(a4)
410022d4:	0047a703          	lw	a4,4(a5)
410022d8:	00470713          	addi	a4,a4,4
410022dc:	0087a683          	lw	a3,8(a5)
410022e0:	00d77733          	and	a4,a4,a3
410022e4:	00e7a223          	sw	a4,4(a5)
410022e8:	00000693          	li	a3,0
410022ec:	0500006f          	j	4100233c <render+0xa58>
410022f0:	00269793          	slli	a5,a3,0x2
410022f4:	15010713          	addi	a4,sp,336
410022f8:	00f707b3          	add	a5,a4,a5
410022fc:	f807a583          	lw	a1,-128(a5)
41002300:	410057b7          	lui	a5,0x41005
41002304:	e0078793          	addi	a5,a5,-512 # 41004e00 <g_gpu_driver>
41002308:	0047a703          	lw	a4,4(a5)
4100230c:	0087a603          	lw	a2,8(a5)
41002310:	00c77733          	and	a4,a4,a2
41002314:	0007a603          	lw	a2,0(a5)
41002318:	ffc77713          	andi	a4,a4,-4
4100231c:	00e60733          	add	a4,a2,a4
41002320:	00b72023          	sw	a1,0(a4)
41002324:	0047a703          	lw	a4,4(a5)
41002328:	00470713          	addi	a4,a4,4
4100232c:	0087a603          	lw	a2,8(a5)
41002330:	00c77733          	and	a4,a4,a2
41002334:	00e7a223          	sw	a4,4(a5)
41002338:	00168693          	addi	a3,a3,1
4100233c:	00f00793          	li	a5,15
41002340:	fad7d8e3          	bge	a5,a3,410022f0 <render+0xa0c>
41002344:	410057b7          	lui	a5,0x41005
41002348:	e0078793          	addi	a5,a5,-512 # 41004e00 <g_gpu_driver>
4100234c:	0047a703          	lw	a4,4(a5)
41002350:	0087a683          	lw	a3,8(a5)
41002354:	00d77733          	and	a4,a4,a3
41002358:	0007a683          	lw	a3,0(a5)
4100235c:	ffc77713          	andi	a4,a4,-4
41002360:	00e68733          	add	a4,a3,a4
41002364:	070006b7          	lui	a3,0x7000
41002368:	01168693          	addi	a3,a3,17 # 7000011 <STACK_SIZE+0x6fe0011>
4100236c:	00d72023          	sw	a3,0(a4)
41002370:	0047a703          	lw	a4,4(a5)
41002374:	00470713          	addi	a4,a4,4
41002378:	0087a683          	lw	a3,8(a5)
4100237c:	00d77733          	and	a4,a4,a3
41002380:	00e7a223          	sw	a4,4(a5)
41002384:	00d77733          	and	a4,a4,a3
41002388:	0007a683          	lw	a3,0(a5)
4100238c:	ffc77713          	andi	a4,a4,-4
41002390:	00e68733          	add	a4,a3,a4
41002394:	00200693          	li	a3,2
41002398:	00d72023          	sw	a3,0(a4)
4100239c:	0047a703          	lw	a4,4(a5)
410023a0:	00470713          	addi	a4,a4,4
410023a4:	0087a683          	lw	a3,8(a5)
410023a8:	00d77733          	and	a4,a4,a3
410023ac:	00e7a223          	sw	a4,4(a5)
410023b0:	00000693          	li	a3,0
410023b4:	0500006f          	j	41002404 <render+0xb20>
410023b8:	00269793          	slli	a5,a3,0x2
410023bc:	15010713          	addi	a4,sp,336
410023c0:	00f707b3          	add	a5,a4,a5
410023c4:	f407a583          	lw	a1,-192(a5)
410023c8:	410057b7          	lui	a5,0x41005
410023cc:	e0078793          	addi	a5,a5,-512 # 41004e00 <g_gpu_driver>
410023d0:	0047a703          	lw	a4,4(a5)
410023d4:	0087a603          	lw	a2,8(a5)
410023d8:	00c77733          	and	a4,a4,a2
410023dc:	0007a603          	lw	a2,0(a5)
410023e0:	ffc77713          	andi	a4,a4,-4
410023e4:	00e60733          	add	a4,a2,a4
410023e8:	00b72023          	sw	a1,0(a4)
410023ec:	0047a703          	lw	a4,4(a5)
410023f0:	00470713          	addi	a4,a4,4
410023f4:	0087a603          	lw	a2,8(a5)
410023f8:	00c77733          	and	a4,a4,a2
410023fc:	00e7a223          	sw	a4,4(a5)
41002400:	00168693          	addi	a3,a3,1
41002404:	00f00793          	li	a5,15
41002408:	fad7d8e3          	bge	a5,a3,410023b8 <render+0xad4>
4100240c:	410057b7          	lui	a5,0x41005
41002410:	e0078793          	addi	a5,a5,-512 # 41004e00 <g_gpu_driver>
41002414:	0047a703          	lw	a4,4(a5)
41002418:	0087a683          	lw	a3,8(a5)
4100241c:	00d77733          	and	a4,a4,a3
41002420:	0007a683          	lw	a3,0(a5)
41002424:	ffc77713          	andi	a4,a4,-4
41002428:	00e68733          	add	a4,a3,a4
4100242c:	06000637          	lui	a2,0x6000
41002430:	00560613          	addi	a2,a2,5 # 6000005 <STACK_SIZE+0x5fe0005>
41002434:	00c72023          	sw	a2,0(a4)
41002438:	0047a703          	lw	a4,4(a5)
4100243c:	00470713          	addi	a4,a4,4
41002440:	0087a683          	lw	a3,8(a5)
41002444:	00d77733          	and	a4,a4,a3
41002448:	00e7a223          	sw	a4,4(a5)
4100244c:	00d77733          	and	a4,a4,a3
41002450:	0007a683          	lw	a3,0(a5)
41002454:	ffc77713          	andi	a4,a4,-4
41002458:	00e68733          	add	a4,a3,a4
4100245c:	00300693          	li	a3,3
41002460:	00d72023          	sw	a3,0(a4)
41002464:	0047a703          	lw	a4,4(a5)
41002468:	00470713          	addi	a4,a4,4
4100246c:	0087a583          	lw	a1,8(a5)
41002470:	00b77733          	and	a4,a4,a1
41002474:	00e7a223          	sw	a4,4(a5)
41002478:	00b77733          	and	a4,a4,a1
4100247c:	0007a583          	lw	a1,0(a5)
41002480:	ffc77713          	andi	a4,a4,-4
41002484:	00e58733          	add	a4,a1,a4
41002488:	00072023          	sw	zero,0(a4)
4100248c:	0047a703          	lw	a4,4(a5)
41002490:	00470713          	addi	a4,a4,4
41002494:	0087a583          	lw	a1,8(a5)
41002498:	00b77733          	and	a4,a4,a1
4100249c:	00e7a223          	sw	a4,4(a5)
410024a0:	00b77733          	and	a4,a4,a1
410024a4:	0007a583          	lw	a1,0(a5)
410024a8:	ffc77713          	andi	a4,a4,-4
410024ac:	00e58733          	add	a4,a1,a4
410024b0:	00072023          	sw	zero,0(a4)
410024b4:	0047a703          	lw	a4,4(a5)
410024b8:	00470713          	addi	a4,a4,4
410024bc:	0087a583          	lw	a1,8(a5)
410024c0:	00b77733          	and	a4,a4,a1
410024c4:	00e7a223          	sw	a4,4(a5)
410024c8:	00b77733          	and	a4,a4,a1
410024cc:	0007a583          	lw	a1,0(a5)
410024d0:	ffc77713          	andi	a4,a4,-4
410024d4:	00e58733          	add	a4,a1,a4
410024d8:	00072023          	sw	zero,0(a4)
410024dc:	0047a703          	lw	a4,4(a5)
410024e0:	00470713          	addi	a4,a4,4
410024e4:	0087a583          	lw	a1,8(a5)
410024e8:	00b77733          	and	a4,a4,a1
410024ec:	00e7a223          	sw	a4,4(a5)
410024f0:	00b77733          	and	a4,a4,a1
410024f4:	0007a583          	lw	a1,0(a5)
410024f8:	ffc77713          	andi	a4,a4,-4
410024fc:	00e58733          	add	a4,a1,a4
41002500:	00072023          	sw	zero,0(a4)
41002504:	0047a703          	lw	a4,4(a5)
41002508:	00470713          	addi	a4,a4,4
4100250c:	0087a583          	lw	a1,8(a5)
41002510:	00b77733          	and	a4,a4,a1
41002514:	00e7a223          	sw	a4,4(a5)
41002518:	00b77733          	and	a4,a4,a1
4100251c:	0007a583          	lw	a1,0(a5)
41002520:	ffc77713          	andi	a4,a4,-4
41002524:	00e58733          	add	a4,a1,a4
41002528:	00c72023          	sw	a2,0(a4)
4100252c:	0047a703          	lw	a4,4(a5)
41002530:	00470713          	addi	a4,a4,4
41002534:	0087a603          	lw	a2,8(a5)
41002538:	00c77733          	and	a4,a4,a2
4100253c:	00e7a223          	sw	a4,4(a5)
41002540:	00c77733          	and	a4,a4,a2
41002544:	0007a603          	lw	a2,0(a5)
41002548:	ffc77713          	andi	a4,a4,-4
4100254c:	00e60733          	add	a4,a2,a4
41002550:	00400613          	li	a2,4
41002554:	00c72023          	sw	a2,0(a4)
41002558:	0047a703          	lw	a4,4(a5)
4100255c:	00470713          	addi	a4,a4,4
41002560:	0087a603          	lw	a2,8(a5)
41002564:	00c77733          	and	a4,a4,a2
41002568:	00e7a223          	sw	a4,4(a5)
4100256c:	00c77733          	and	a4,a4,a2
41002570:	0007a603          	lw	a2,0(a5)
41002574:	ffc77713          	andi	a4,a4,-4
41002578:	00e60733          	add	a4,a2,a4
4100257c:	000505b7          	lui	a1,0x50
41002580:	00b72023          	sw	a1,0(a4)
41002584:	0047a703          	lw	a4,4(a5)
41002588:	00470713          	addi	a4,a4,4
4100258c:	0087a603          	lw	a2,8(a5)
41002590:	00c77733          	and	a4,a4,a2
41002594:	00e7a223          	sw	a4,4(a5)
41002598:	00c77733          	and	a4,a4,a2
4100259c:	0007a603          	lw	a2,0(a5)
410025a0:	ffc77713          	andi	a4,a4,-4
410025a4:	00e60733          	add	a4,a2,a4
410025a8:	000a0637          	lui	a2,0xa0
410025ac:	00c72023          	sw	a2,0(a4)
410025b0:	0047a703          	lw	a4,4(a5)
410025b4:	00470713          	addi	a4,a4,4
410025b8:	0087a603          	lw	a2,8(a5)
410025bc:	00c77733          	and	a4,a4,a2
410025c0:	00e7a223          	sw	a4,4(a5)
410025c4:	00c77733          	and	a4,a4,a2
410025c8:	0007a603          	lw	a2,0(a5)
410025cc:	ffc77713          	andi	a4,a4,-4
410025d0:	00e60733          	add	a4,a2,a4
410025d4:	00b72023          	sw	a1,0(a4)
410025d8:	0047a703          	lw	a4,4(a5)
410025dc:	00470713          	addi	a4,a4,4
410025e0:	0087a603          	lw	a2,8(a5)
410025e4:	00c77733          	and	a4,a4,a2
410025e8:	00e7a223          	sw	a4,4(a5)
410025ec:	00c77733          	and	a4,a4,a2
410025f0:	0007a603          	lw	a2,0(a5)
410025f4:	ffc77713          	andi	a4,a4,-4
410025f8:	00e60733          	add	a4,a2,a4
410025fc:	00010637          	lui	a2,0x10
41002600:	00c72023          	sw	a2,0(a4)
41002604:	0047a703          	lw	a4,4(a5)
41002608:	00470713          	addi	a4,a4,4
4100260c:	0087a603          	lw	a2,8(a5)
41002610:	00c77733          	and	a4,a4,a2
41002614:	00e7a223          	sw	a4,4(a5)
41002618:	00c77733          	and	a4,a4,a2
4100261c:	0007a603          	lw	a2,0(a5)
41002620:	ffc77713          	andi	a4,a4,-4
41002624:	00e60733          	add	a4,a2,a4
41002628:	09000637          	lui	a2,0x9000
4100262c:	00260613          	addi	a2,a2,2 # 9000002 <STACK_SIZE+0x8fe0002>
41002630:	00c72023          	sw	a2,0(a4)
41002634:	0047a703          	lw	a4,4(a5)
41002638:	00470713          	addi	a4,a4,4
4100263c:	0087a603          	lw	a2,8(a5)
41002640:	00c77733          	and	a4,a4,a2
41002644:	00e7a223          	sw	a4,4(a5)
41002648:	00c77733          	and	a4,a4,a2
4100264c:	0007a603          	lw	a2,0(a5)
41002650:	ffc77713          	andi	a4,a4,-4
41002654:	00e60733          	add	a4,a2,a4
41002658:	00d72023          	sw	a3,0(a4)
4100265c:	0047a703          	lw	a4,4(a5)
41002660:	00470713          	addi	a4,a4,4
41002664:	0087a683          	lw	a3,8(a5)
41002668:	00d77733          	and	a4,a4,a3
4100266c:	00e7a223          	sw	a4,4(a5)
41002670:	00d77733          	and	a4,a4,a3
41002674:	0007a683          	lw	a3,0(a5)
41002678:	ffc77713          	andi	a4,a4,-4
4100267c:	00e68733          	add	a4,a3,a4
41002680:	ff0006b7          	lui	a3,0xff000
41002684:	00d72023          	sw	a3,0(a4)
41002688:	0047a703          	lw	a4,4(a5)
4100268c:	00470713          	addi	a4,a4,4
41002690:	0087a683          	lw	a3,8(a5)
41002694:	00d77733          	and	a4,a4,a3
41002698:	00e7a223          	sw	a4,4(a5)
4100269c:	00d77733          	and	a4,a4,a3
410026a0:	0007a683          	lw	a3,0(a5)
410026a4:	ffc77713          	andi	a4,a4,-4
410026a8:	00e68733          	add	a4,a3,a4
410026ac:	020006b7          	lui	a3,0x2000
410026b0:	00168693          	addi	a3,a3,1 # 2000001 <STACK_SIZE+0x1fe0001>
410026b4:	00d72023          	sw	a3,0(a4)
410026b8:	0047a703          	lw	a4,4(a5)
410026bc:	00470713          	addi	a4,a4,4
410026c0:	0087a683          	lw	a3,8(a5)
410026c4:	00d77733          	and	a4,a4,a3
410026c8:	00e7a223          	sw	a4,4(a5)
410026cc:	00d77733          	and	a4,a4,a3
410026d0:	0007a683          	lw	a3,0(a5)
410026d4:	ffc77713          	andi	a4,a4,-4
410026d8:	00e68733          	add	a4,a3,a4
410026dc:	02400693          	li	a3,36
410026e0:	00d72023          	sw	a3,0(a4)
410026e4:	0047a703          	lw	a4,4(a5)
410026e8:	00470713          	addi	a4,a4,4
410026ec:	0087a683          	lw	a3,8(a5)
410026f0:	00d77733          	and	a4,a4,a3
410026f4:	00e7a223          	sw	a4,4(a5)
410026f8:	410057b7          	lui	a5,0x41005
410026fc:	b7478793          	addi	a5,a5,-1164 # 41004b74 <angle+0x194>
41002700:	04010713          	addi	a4,sp,64
41002704:	04078813          	addi	a6,a5,64
41002708:	0007a503          	lw	a0,0(a5)
4100270c:	0047a583          	lw	a1,4(a5)
41002710:	0087a603          	lw	a2,8(a5)
41002714:	00c7a683          	lw	a3,12(a5)
41002718:	00a72023          	sw	a0,0(a4)
4100271c:	00b72223          	sw	a1,4(a4)
41002720:	00c72423          	sw	a2,8(a4)
41002724:	00d72623          	sw	a3,12(a4)
41002728:	01078793          	addi	a5,a5,16
4100272c:	01070713          	addi	a4,a4,16
41002730:	fd079ce3          	bne	a5,a6,41002708 <render+0xe24>
41002734:	11012783          	lw	a5,272(sp)
41002738:	04f12023          	sw	a5,64(sp)
4100273c:	11812783          	lw	a5,280(sp)
41002740:	04f12423          	sw	a5,72(sp)
41002744:	13012783          	lw	a5,304(sp)
41002748:	06f12023          	sw	a5,96(sp)
4100274c:	13812783          	lw	a5,312(sp)
41002750:	06f12423          	sw	a5,104(sp)
41002754:	fffe07b7          	lui	a5,0xfffe0
41002758:	06f12823          	sw	a5,112(sp)
4100275c:	fff807b7          	lui	a5,0xfff80
41002760:	06f12c23          	sw	a5,120(sp)
41002764:	410057b7          	lui	a5,0x41005
41002768:	e0078793          	addi	a5,a5,-512 # 41004e00 <g_gpu_driver>
4100276c:	0047a703          	lw	a4,4(a5)
41002770:	0087a683          	lw	a3,8(a5)
41002774:	00d77733          	and	a4,a4,a3
41002778:	0007a683          	lw	a3,0(a5)
4100277c:	ffc77713          	andi	a4,a4,-4
41002780:	00e68733          	add	a4,a3,a4
41002784:	070006b7          	lui	a3,0x7000
41002788:	01168693          	addi	a3,a3,17 # 7000011 <STACK_SIZE+0x6fe0011>
4100278c:	00d72023          	sw	a3,0(a4)
41002790:	0047a703          	lw	a4,4(a5)
41002794:	00470713          	addi	a4,a4,4
41002798:	0087a683          	lw	a3,8(a5)
4100279c:	00d77733          	and	a4,a4,a3
410027a0:	00e7a223          	sw	a4,4(a5)
410027a4:	00d77733          	and	a4,a4,a3
410027a8:	0007a683          	lw	a3,0(a5)
410027ac:	ffc77713          	andi	a4,a4,-4
410027b0:	00e68733          	add	a4,a3,a4
410027b4:	00100693          	li	a3,1
410027b8:	00d72023          	sw	a3,0(a4)
410027bc:	0047a703          	lw	a4,4(a5)
410027c0:	00470713          	addi	a4,a4,4
410027c4:	0087a683          	lw	a3,8(a5)
410027c8:	00d77733          	and	a4,a4,a3
410027cc:	00e7a223          	sw	a4,4(a5)
410027d0:	00000693          	li	a3,0
410027d4:	0500006f          	j	41002824 <render+0xf40>
410027d8:	00269793          	slli	a5,a3,0x2
410027dc:	15010713          	addi	a4,sp,336
410027e0:	00f707b3          	add	a5,a4,a5
410027e4:	ef07a583          	lw	a1,-272(a5)
410027e8:	410057b7          	lui	a5,0x41005
410027ec:	e0078793          	addi	a5,a5,-512 # 41004e00 <g_gpu_driver>
410027f0:	0047a703          	lw	a4,4(a5)
410027f4:	0087a603          	lw	a2,8(a5)
410027f8:	00c77733          	and	a4,a4,a2
410027fc:	0007a603          	lw	a2,0(a5)
41002800:	ffc77713          	andi	a4,a4,-4
41002804:	00e60733          	add	a4,a2,a4
41002808:	00b72023          	sw	a1,0(a4)
4100280c:	0047a703          	lw	a4,4(a5)
41002810:	00470713          	addi	a4,a4,4
41002814:	0087a603          	lw	a2,8(a5)
41002818:	00c77733          	and	a4,a4,a2
4100281c:	00e7a223          	sw	a4,4(a5)
41002820:	00168693          	addi	a3,a3,1
41002824:	00f00793          	li	a5,15
41002828:	fad7d8e3          	bge	a5,a3,410027d8 <render+0xef4>
4100282c:	410057b7          	lui	a5,0x41005
41002830:	e0078793          	addi	a5,a5,-512 # 41004e00 <g_gpu_driver>
41002834:	0047a703          	lw	a4,4(a5)
41002838:	0087a683          	lw	a3,8(a5)
4100283c:	00d77733          	and	a4,a4,a3
41002840:	0007a683          	lw	a3,0(a5)
41002844:	ffc77713          	andi	a4,a4,-4
41002848:	00e68733          	add	a4,a3,a4
4100284c:	020006b7          	lui	a3,0x2000
41002850:	00168693          	addi	a3,a3,1 # 2000001 <STACK_SIZE+0x1fe0001>
41002854:	00d72023          	sw	a3,0(a4)
41002858:	0047a703          	lw	a4,4(a5)
4100285c:	00470713          	addi	a4,a4,4
41002860:	0087a683          	lw	a3,8(a5)
41002864:	00d77733          	and	a4,a4,a3
41002868:	00e7a223          	sw	a4,4(a5)
4100286c:	00d77733          	and	a4,a4,a3
41002870:	0007a683          	lw	a3,0(a5)
41002874:	ffc77713          	andi	a4,a4,-4
41002878:	00e68733          	add	a4,a3,a4
4100287c:	02400693          	li	a3,36
41002880:	00d72023          	sw	a3,0(a4)
41002884:	0047a703          	lw	a4,4(a5)
41002888:	00470713          	addi	a4,a4,4
4100288c:	0087a683          	lw	a3,8(a5)
41002890:	00d77733          	and	a4,a4,a3
41002894:	00e7a223          	sw	a4,4(a5)
41002898:	00d77733          	and	a4,a4,a3
4100289c:	0007a683          	lw	a3,0(a5)
410028a0:	ffc77713          	andi	a4,a4,-4
410028a4:	00e68733          	add	a4,a3,a4
410028a8:	030006b7          	lui	a3,0x3000
410028ac:	00268693          	addi	a3,a3,2 # 3000002 <STACK_SIZE+0x2fe0002>
410028b0:	00d72023          	sw	a3,0(a4)
410028b4:	0047a703          	lw	a4,4(a5)
410028b8:	00470713          	addi	a4,a4,4
410028bc:	0087a683          	lw	a3,8(a5)
410028c0:	00d77733          	and	a4,a4,a3
410028c4:	00e7a223          	sw	a4,4(a5)
410028c8:	00d77733          	and	a4,a4,a3
410028cc:	0007a683          	lw	a3,0(a5)
410028d0:	ffc77713          	andi	a4,a4,-4
410028d4:	00e68733          	add	a4,a3,a4
410028d8:	410496b7          	lui	a3,0x41049
410028dc:	94868693          	addi	a3,a3,-1720 # 41048948 <g_gpu_fence_var>
410028e0:	00d72023          	sw	a3,0(a4)
410028e4:	0047a703          	lw	a4,4(a5)
410028e8:	00470713          	addi	a4,a4,4
410028ec:	0087a683          	lw	a3,8(a5)
410028f0:	00d77733          	and	a4,a4,a3
410028f4:	00e7a223          	sw	a4,4(a5)
410028f8:	00d77733          	and	a4,a4,a3
410028fc:	0007a683          	lw	a3,0(a5)
41002900:	ffc77713          	andi	a4,a4,-4
41002904:	00e68733          	add	a4,a3,a4
41002908:	00100693          	li	a3,1
4100290c:	00d72023          	sw	a3,0(a4)
41002910:	0047a703          	lw	a4,4(a5)
41002914:	00470713          	addi	a4,a4,4
41002918:	0087a683          	lw	a3,8(a5)
4100291c:	00d77733          	and	a4,a4,a3
41002920:	00e7a223          	sw	a4,4(a5)
41002924:	0ff0000f          	fence
41002928:	0047a703          	lw	a4,4(a5)
4100292c:	640007b7          	lui	a5,0x64000
41002930:	00e7a623          	sw	a4,12(a5) # 6400000c <_end+0x22f976c0>
41002934:	410497b7          	lui	a5,0x41049
41002938:	9487a783          	lw	a5,-1720(a5) # 41048948 <g_gpu_fence_var>
4100293c:	fe078ce3          	beqz	a5,41002934 <render+0x1050>
41002940:	00a00513          	li	a0,10
41002944:	fb0fd0ef          	jal	ra,410000f4 <delay>
41002948:	41005537          	lui	a0,0x41005
4100294c:	a1c50513          	addi	a0,a0,-1508 # 41004a1c <angle+0x3c>
41002950:	f88fd0ef          	jal	ra,410000d8 <_puts>
41002954:	16c12083          	lw	ra,364(sp)
41002958:	16812403          	lw	s0,360(sp)
4100295c:	16412483          	lw	s1,356(sp)
41002960:	16012903          	lw	s2,352(sp)
41002964:	15c12983          	lw	s3,348(sp)
41002968:	15812a03          	lw	s4,344(sp)
4100296c:	15412a83          	lw	s5,340(sp)
41002970:	15012b03          	lw	s6,336(sp)
41002974:	17010113          	addi	sp,sp,368
41002978:	00008067          	ret

4100297c <print_coreid>:
4100297c:	ff010113          	addi	sp,sp,-16
41002980:	00112623          	sw	ra,12(sp)
41002984:	41005537          	lui	a0,0x41005
41002988:	a2c50513          	addi	a0,a0,-1492 # 41004a2c <angle+0x4c>
4100298c:	f4cfd0ef          	jal	ra,410000d8 <_puts>
41002990:	f1402573          	csrr	a0,mhartid
41002994:	c11fd0ef          	jal	ra,410005a4 <put_digit>
41002998:	41005537          	lui	a0,0x41005
4100299c:	a3450513          	addi	a0,a0,-1484 # 41004a34 <angle+0x54>
410029a0:	f38fd0ef          	jal	ra,410000d8 <_puts>
410029a4:	00c12083          	lw	ra,12(sp)
410029a8:	01010113          	addi	sp,sp,16
410029ac:	00008067          	ret

410029b0 <task_create>:
410029b0:	410497b7          	lui	a5,0x41049
410029b4:	9407a703          	lw	a4,-1728(a5) # 41048940 <taskTop>
410029b8:	00170693          	addi	a3,a4,1
410029bc:	94d7a023          	sw	a3,-1728(a5)
410029c0:	00371793          	slli	a5,a4,0x3
410029c4:	40e787b3          	sub	a5,a5,a4
410029c8:	00379693          	slli	a3,a5,0x3
410029cc:	410057b7          	lui	a5,0x41005
410029d0:	e0078793          	addi	a5,a5,-512 # 41004e00 <g_gpu_driver>
410029d4:	00d787b3          	add	a5,a5,a3
410029d8:	00a7a623          	sw	a0,12(a5)
410029dc:	00a71693          	slli	a3,a4,0xa
410029e0:	3ff68693          	addi	a3,a3,1023
410029e4:	41005637          	lui	a2,0x41005
410029e8:	13c60613          	addi	a2,a2,316 # 4100513c <task_stack>
410029ec:	00c686b3          	add	a3,a3,a2
410029f0:	00d7a823          	sw	a3,16(a5)
410029f4:	00070513          	mv	a0,a4
410029f8:	00008067          	ret

410029fc <task_go>:
410029fc:	ff010113          	addi	sp,sp,-16
41002a00:	00112623          	sw	ra,12(sp)
41002a04:	f1402773          	csrr	a4,mhartid
41002a08:	410057b7          	lui	a5,0x41005
41002a0c:	e0078793          	addi	a5,a5,-512 # 41004e00 <g_gpu_driver>
41002a10:	00c78693          	addi	a3,a5,12
41002a14:	00351593          	slli	a1,a0,0x3
41002a18:	40a585b3          	sub	a1,a1,a0
41002a1c:	00359593          	slli	a1,a1,0x3
41002a20:	00b685b3          	add	a1,a3,a1
41002a24:	00671713          	slli	a4,a4,0x6
41002a28:	00e78733          	add	a4,a5,a4
41002a2c:	26b72a23          	sw	a1,628(a4)
41002a30:	f1402573          	csrr	a0,mhartid
41002a34:	23c78793          	addi	a5,a5,572
41002a38:	00651513          	slli	a0,a0,0x6
41002a3c:	00a78533          	add	a0,a5,a0
41002a40:	df0fd0ef          	jal	ra,41000030 <sys_switch>
41002a44:	00c12083          	lw	ra,12(sp)
41002a48:	01010113          	addi	sp,sp,16
41002a4c:	00008067          	ret

41002a50 <task_os>:
41002a50:	ff010113          	addi	sp,sp,-16
41002a54:	00112623          	sw	ra,12(sp)
41002a58:	f1402773          	csrr	a4,mhartid
41002a5c:	410057b7          	lui	a5,0x41005
41002a60:	e0078793          	addi	a5,a5,-512 # 41004e00 <g_gpu_driver>
41002a64:	00671713          	slli	a4,a4,0x6
41002a68:	00e78733          	add	a4,a5,a4
41002a6c:	27472503          	lw	a0,628(a4)
41002a70:	f1402773          	csrr	a4,mhartid
41002a74:	f14026f3          	csrr	a3,mhartid
41002a78:	23c78593          	addi	a1,a5,572
41002a7c:	00671713          	slli	a4,a4,0x6
41002a80:	00e58733          	add	a4,a1,a4
41002a84:	00669693          	slli	a3,a3,0x6
41002a88:	00d787b3          	add	a5,a5,a3
41002a8c:	26e7aa23          	sw	a4,628(a5)
41002a90:	f14027f3          	csrr	a5,mhartid
41002a94:	00679793          	slli	a5,a5,0x6
41002a98:	00f585b3          	add	a1,a1,a5
41002a9c:	d94fd0ef          	jal	ra,41000030 <sys_switch>
41002aa0:	00c12083          	lw	ra,12(sp)
41002aa4:	01010113          	addi	sp,sp,16
41002aa8:	00008067          	ret

41002aac <os_kernel>:
41002aac:	ff010113          	addi	sp,sp,-16
41002ab0:	00112623          	sw	ra,12(sp)
41002ab4:	f9dff0ef          	jal	ra,41002a50 <task_os>
41002ab8:	00c12083          	lw	ra,12(sp)
41002abc:	01010113          	addi	sp,sp,16
41002ac0:	00008067          	ret

41002ac4 <user_task0>:
41002ac4:	ff010113          	addi	sp,sp,-16
41002ac8:	00112623          	sw	ra,12(sp)
41002acc:	eb1ff0ef          	jal	ra,4100297c <print_coreid>
41002ad0:	41005537          	lui	a0,0x41005
41002ad4:	a3850513          	addi	a0,a0,-1480 # 41004a38 <angle+0x58>
41002ad8:	e00fd0ef          	jal	ra,410000d8 <_puts>
41002adc:	41005537          	lui	a0,0x41005
41002ae0:	a4c50513          	addi	a0,a0,-1460 # 41004a4c <angle+0x6c>
41002ae4:	df4fd0ef          	jal	ra,410000d8 <_puts>
41002ae8:	fc5ff0ef          	jal	ra,41002aac <os_kernel>
41002aec:	e91ff0ef          	jal	ra,4100297c <print_coreid>
41002af0:	41005537          	lui	a0,0x41005
41002af4:	a7050513          	addi	a0,a0,-1424 # 41004a70 <angle+0x90>
41002af8:	de0fd0ef          	jal	ra,410000d8 <_puts>
41002afc:	3e800513          	li	a0,1000
41002b00:	df4fd0ef          	jal	ra,410000f4 <delay>
41002b04:	fa9ff0ef          	jal	ra,41002aac <os_kernel>
41002b08:	fe5ff06f          	j	41002aec <user_task0+0x28>

41002b0c <user_task1>:
41002b0c:	ff010113          	addi	sp,sp,-16
41002b10:	00112623          	sw	ra,12(sp)
41002b14:	e69ff0ef          	jal	ra,4100297c <print_coreid>
41002b18:	41005537          	lui	a0,0x41005
41002b1c:	a8450513          	addi	a0,a0,-1404 # 41004a84 <angle+0xa4>
41002b20:	db8fd0ef          	jal	ra,410000d8 <_puts>
41002b24:	41005537          	lui	a0,0x41005
41002b28:	a9850513          	addi	a0,a0,-1384 # 41004a98 <angle+0xb8>
41002b2c:	dacfd0ef          	jal	ra,410000d8 <_puts>
41002b30:	f7dff0ef          	jal	ra,41002aac <os_kernel>
41002b34:	e49ff0ef          	jal	ra,4100297c <print_coreid>
41002b38:	41005537          	lui	a0,0x41005
41002b3c:	abc50513          	addi	a0,a0,-1348 # 41004abc <angle+0xdc>
41002b40:	d98fd0ef          	jal	ra,410000d8 <_puts>
41002b44:	3e800513          	li	a0,1000
41002b48:	dacfd0ef          	jal	ra,410000f4 <delay>
41002b4c:	f61ff0ef          	jal	ra,41002aac <os_kernel>
41002b50:	fe5ff06f          	j	41002b34 <user_task1+0x28>

41002b54 <user_task2>:
41002b54:	ff010113          	addi	sp,sp,-16
41002b58:	00112623          	sw	ra,12(sp)
41002b5c:	e21ff0ef          	jal	ra,4100297c <print_coreid>
41002b60:	41005537          	lui	a0,0x41005
41002b64:	ad050513          	addi	a0,a0,-1328 # 41004ad0 <angle+0xf0>
41002b68:	d70fd0ef          	jal	ra,410000d8 <_puts>
41002b6c:	41005537          	lui	a0,0x41005
41002b70:	ae450513          	addi	a0,a0,-1308 # 41004ae4 <angle+0x104>
41002b74:	d64fd0ef          	jal	ra,410000d8 <_puts>
41002b78:	f35ff0ef          	jal	ra,41002aac <os_kernel>
41002b7c:	e01ff0ef          	jal	ra,4100297c <print_coreid>
41002b80:	41005537          	lui	a0,0x41005
41002b84:	b0850513          	addi	a0,a0,-1272 # 41004b08 <angle+0x128>
41002b88:	d50fd0ef          	jal	ra,410000d8 <_puts>
41002b8c:	3e800513          	li	a0,1000
41002b90:	d64fd0ef          	jal	ra,410000f4 <delay>
41002b94:	f19ff0ef          	jal	ra,41002aac <os_kernel>
41002b98:	fe5ff06f          	j	41002b7c <user_task2+0x28>

41002b9c <user_task3>:
41002b9c:	ff010113          	addi	sp,sp,-16
41002ba0:	00112623          	sw	ra,12(sp)
41002ba4:	dd9ff0ef          	jal	ra,4100297c <print_coreid>
41002ba8:	41005537          	lui	a0,0x41005
41002bac:	b1c50513          	addi	a0,a0,-1252 # 41004b1c <angle+0x13c>
41002bb0:	d28fd0ef          	jal	ra,410000d8 <_puts>
41002bb4:	41005537          	lui	a0,0x41005
41002bb8:	b3050513          	addi	a0,a0,-1232 # 41004b30 <angle+0x150>
41002bbc:	d1cfd0ef          	jal	ra,410000d8 <_puts>
41002bc0:	eedff0ef          	jal	ra,41002aac <os_kernel>
41002bc4:	db9ff0ef          	jal	ra,4100297c <print_coreid>
41002bc8:	41005537          	lui	a0,0x41005
41002bcc:	b5450513          	addi	a0,a0,-1196 # 41004b54 <angle+0x174>
41002bd0:	d08fd0ef          	jal	ra,410000d8 <_puts>
41002bd4:	3e800513          	li	a0,1000
41002bd8:	d1cfd0ef          	jal	ra,410000f4 <delay>
41002bdc:	ed1ff0ef          	jal	ra,41002aac <os_kernel>
41002be0:	fe5ff06f          	j	41002bc4 <user_task3+0x28>

41002be4 <user_init>:
41002be4:	ff010113          	addi	sp,sp,-16
41002be8:	00112623          	sw	ra,12(sp)
41002bec:	d91ff0ef          	jal	ra,4100297c <print_coreid>
41002bf0:	41003537          	lui	a0,0x41003
41002bf4:	ac450513          	addi	a0,a0,-1340 # 41002ac4 <user_task0>
41002bf8:	db9ff0ef          	jal	ra,410029b0 <task_create>
41002bfc:	41003537          	lui	a0,0x41003
41002c00:	b0c50513          	addi	a0,a0,-1268 # 41002b0c <user_task1>
41002c04:	dadff0ef          	jal	ra,410029b0 <task_create>
41002c08:	41003537          	lui	a0,0x41003
41002c0c:	b5450513          	addi	a0,a0,-1196 # 41002b54 <user_task2>
41002c10:	da1ff0ef          	jal	ra,410029b0 <task_create>
41002c14:	41003537          	lui	a0,0x41003
41002c18:	b9c50513          	addi	a0,a0,-1124 # 41002b9c <user_task3>
41002c1c:	d95ff0ef          	jal	ra,410029b0 <task_create>
41002c20:	00c12083          	lw	ra,12(sp)
41002c24:	01010113          	addi	sp,sp,16
41002c28:	00008067          	ret

41002c2c <os_start>:
41002c2c:	ff010113          	addi	sp,sp,-16
41002c30:	00112623          	sw	ra,12(sp)
41002c34:	41005537          	lui	a0,0x41005
41002c38:	b6850513          	addi	a0,a0,-1176 # 41004b68 <angle+0x188>
41002c3c:	c9cfd0ef          	jal	ra,410000d8 <_puts>
41002c40:	fa5ff0ef          	jal	ra,41002be4 <user_init>
41002c44:	00c12083          	lw	ra,12(sp)
41002c48:	01010113          	addi	sp,sp,16
41002c4c:	00008067          	ret

41002c50 <os_main>:
41002c50:	ff010113          	addi	sp,sp,-16
41002c54:	00112623          	sw	ra,12(sp)
41002c58:	00812423          	sw	s0,8(sp)
41002c5c:	f14027f3          	csrr	a5,mhartid
41002c60:	04079463          	bnez	a5,41002ca8 <os_main+0x58>
41002c64:	fc9ff0ef          	jal	ra,41002c2c <os_start>
41002c68:	0400006f          	j	41002ca8 <os_main+0x58>
41002c6c:	00040513          	mv	a0,s0
41002c70:	d8dff0ef          	jal	ra,410029fc <task_go>
41002c74:	00140413          	addi	s0,s0,1
41002c78:	f14027f3          	csrr	a5,mhartid
41002c7c:	41049737          	lui	a4,0x41049
41002c80:	94072703          	lw	a4,-1728(a4) # 41048940 <taskTop>
41002c84:	02e46433          	rem	s0,s0,a4
41002c88:	00679713          	slli	a4,a5,0x6
41002c8c:	410057b7          	lui	a5,0x41005
41002c90:	e0078793          	addi	a5,a5,-512 # 41004e00 <g_gpu_driver>
41002c94:	00e787b3          	add	a5,a5,a4
41002c98:	2687ac23          	sw	s0,632(a5)
41002c9c:	41049537          	lui	a0,0x41049
41002ca0:	94450513          	addi	a0,a0,-1724 # 41048944 <lock>
41002ca4:	b84fd0ef          	jal	ra,41000028 <release>
41002ca8:	41049537          	lui	a0,0x41049
41002cac:	94450513          	addi	a0,a0,-1724 # 41048944 <lock>
41002cb0:	b60fd0ef          	jal	ra,41000010 <acquire>
41002cb4:	f14027f3          	csrr	a5,mhartid
41002cb8:	00679713          	slli	a4,a5,0x6
41002cbc:	410057b7          	lui	a5,0x41005
41002cc0:	e0078793          	addi	a5,a5,-512 # 41004e00 <g_gpu_driver>
41002cc4:	00e787b3          	add	a5,a5,a4
41002cc8:	2787a403          	lw	s0,632(a5)
41002ccc:	410497b7          	lui	a5,0x41049
41002cd0:	9407a783          	lw	a5,-1728(a5) # 41048940 <taskTop>
41002cd4:	f8f44ce3          	blt	s0,a5,41002c6c <os_main+0x1c>
41002cd8:	fc5ff06f          	j	41002c9c <os_main+0x4c>

41002cdc <main>:
41002cdc:	f14027f3          	csrr	a5,mhartid
41002ce0:	00078463          	beqz	a5,41002ce8 <main+0xc>
41002ce4:	0000006f          	j	41002ce4 <main+0x8>
41002ce8:	ff010113          	addi	sp,sp,-16
41002cec:	00112623          	sw	ra,12(sp)
41002cf0:	00812423          	sw	s0,8(sp)
41002cf4:	00912223          	sw	s1,4(sp)
41002cf8:	01212023          	sw	s2,0(sp)
41002cfc:	41005437          	lui	s0,0x41005
41002d00:	e0040913          	addi	s2,s0,-512 # 41004e00 <g_gpu_driver>
41002d04:	410487b7          	lui	a5,0x41048
41002d08:	94078793          	addi	a5,a5,-1728 # 41047940 <g_gpu_ring_ram>
41002d0c:	00f92023          	sw	a5,0(s2)
41002d10:	00092223          	sw	zero,4(s2)
41002d14:	00001737          	lui	a4,0x1
41002d18:	fff70693          	addi	a3,a4,-1 # fff <STACK_SIZE-0x1f001>
41002d1c:	00d92423          	sw	a3,8(s2)
41002d20:	640004b7          	lui	s1,0x64000
41002d24:	00f4a023          	sw	a5,0(s1) # 64000000 <_end+0x22f976b4>
41002d28:	00e4a223          	sw	a4,4(s1)
41002d2c:	0004a623          	sw	zero,12(s1)
41002d30:	0ff0000f          	fence
41002d34:	040005b7          	lui	a1,0x4000
41002d38:	00258593          	addi	a1,a1,2 # 4000002 <STACK_SIZE+0x3fe0002>
41002d3c:	e0040513          	addi	a0,s0,-512
41002d40:	b64fd0ef          	jal	ra,410000a4 <emit_word>
41002d44:	410055b7          	lui	a1,0x41005
41002d48:	9d858593          	addi	a1,a1,-1576 # 410049d8 <vertex_shader.1>
41002d4c:	e0040513          	addi	a0,s0,-512
41002d50:	b54fd0ef          	jal	ra,410000a4 <emit_word>
41002d54:	00800593          	li	a1,8
41002d58:	e0040513          	addi	a0,s0,-512
41002d5c:	b48fd0ef          	jal	ra,410000a4 <emit_word>
41002d60:	050005b7          	lui	a1,0x5000
41002d64:	00258593          	addi	a1,a1,2 # 5000002 <STACK_SIZE+0x4fe0002>
41002d68:	e0040513          	addi	a0,s0,-512
41002d6c:	b38fd0ef          	jal	ra,410000a4 <emit_word>
41002d70:	410055b7          	lui	a1,0x41005
41002d74:	9d058593          	addi	a1,a1,-1584 # 410049d0 <fragment_shader.0>
41002d78:	e0040513          	addi	a0,s0,-512
41002d7c:	b28fd0ef          	jal	ra,410000a4 <emit_word>
41002d80:	00800593          	li	a1,8
41002d84:	e0040513          	addi	a0,s0,-512
41002d88:	b1cfd0ef          	jal	ra,410000a4 <emit_word>
41002d8c:	010005b7          	lui	a1,0x1000
41002d90:	00358593          	addi	a1,a1,3 # 1000003 <STACK_SIZE+0xfe0003>
41002d94:	e0040513          	addi	a0,s0,-512
41002d98:	b0cfd0ef          	jal	ra,410000a4 <emit_word>
41002d9c:	410055b7          	lui	a1,0x41005
41002da0:	82058593          	addi	a1,a1,-2016 # 41004820 <g_vertex_buffer_data>
41002da4:	e0040513          	addi	a0,s0,-512
41002da8:	afcfd0ef          	jal	ra,410000a4 <emit_word>
41002dac:	00c00593          	li	a1,12
41002db0:	e0040513          	addi	a0,s0,-512
41002db4:	af0fd0ef          	jal	ra,410000a4 <emit_word>
41002db8:	00000593          	li	a1,0
41002dbc:	e0040513          	addi	a0,s0,-512
41002dc0:	ae4fd0ef          	jal	ra,410000a4 <emit_word>
41002dc4:	080005b7          	lui	a1,0x8000
41002dc8:	00458593          	addi	a1,a1,4 # 8000004 <STACK_SIZE+0x7fe0004>
41002dcc:	e0040513          	addi	a0,s0,-512
41002dd0:	ad4fd0ef          	jal	ra,410000a4 <emit_word>
41002dd4:	00000593          	li	a1,0
41002dd8:	e0040513          	addi	a0,s0,-512
41002ddc:	ac8fd0ef          	jal	ra,410000a4 <emit_word>
41002de0:	410085b7          	lui	a1,0x41008
41002de4:	93c58593          	addi	a1,a1,-1732 # 4100793c <my_texture>
41002de8:	e0040513          	addi	a0,s0,-512
41002dec:	ab8fd0ef          	jal	ra,410000a4 <emit_word>
41002df0:	10000593          	li	a1,256
41002df4:	e0040513          	addi	a0,s0,-512
41002df8:	aacfd0ef          	jal	ra,410000a4 <emit_word>
41002dfc:	10000593          	li	a1,256
41002e00:	e0040513          	addi	a0,s0,-512
41002e04:	aa0fd0ef          	jal	ra,410000a4 <emit_word>
41002e08:	0ff0000f          	fence
41002e0c:	00492783          	lw	a5,4(s2)
41002e10:	00f4a623          	sw	a5,12(s1)
41002e14:	ad1fe0ef          	jal	ra,410018e4 <render>
41002e18:	ffdff06f          	j	41002e14 <main+0x138>

41002e1c <__divdi3>:
41002e1c:	00050e93          	mv	t4,a0
41002e20:	00000813          	li	a6,0
41002e24:	1205c663          	bltz	a1,41002f50 <__divdi3+0x134>
41002e28:	0006dc63          	bgez	a3,41002e40 <__divdi3+0x24>
41002e2c:	00c037b3          	snez	a5,a2
41002e30:	40d006b3          	neg	a3,a3
41002e34:	fff84813          	not	a6,a6
41002e38:	40f686b3          	sub	a3,a3,a5
41002e3c:	40c00633          	neg	a2,a2
41002e40:	00068793          	mv	a5,a3
41002e44:	00060313          	mv	t1,a2
41002e48:	000e8e13          	mv	t3,t4
41002e4c:	00058893          	mv	a7,a1
41002e50:	0e069863          	bnez	a3,41002f40 <__divdi3+0x124>
41002e54:	16c5f063          	bgeu	a1,a2,41002fb4 <__divdi3+0x198>
41002e58:	00010737          	lui	a4,0x10
41002e5c:	24e66063          	bltu	a2,a4,4100309c <__divdi3+0x280>
41002e60:	010007b7          	lui	a5,0x1000
41002e64:	44f66a63          	bltu	a2,a5,410032b8 <__divdi3+0x49c>
41002e68:	01865693          	srli	a3,a2,0x18
41002e6c:	01800793          	li	a5,24
41002e70:	00002717          	auipc	a4,0x2
41002e74:	e6470713          	addi	a4,a4,-412 # 41004cd4 <__clz_tab>
41002e78:	00d70733          	add	a4,a4,a3
41002e7c:	00074703          	lbu	a4,0(a4)
41002e80:	02000693          	li	a3,32
41002e84:	00f707b3          	add	a5,a4,a5
41002e88:	40f68733          	sub	a4,a3,a5
41002e8c:	00f68c63          	beq	a3,a5,41002ea4 <__divdi3+0x88>
41002e90:	00e595b3          	sll	a1,a1,a4
41002e94:	00fed7b3          	srl	a5,t4,a5
41002e98:	00e61333          	sll	t1,a2,a4
41002e9c:	00b7e8b3          	or	a7,a5,a1
41002ea0:	00ee9e33          	sll	t3,t4,a4
41002ea4:	01035593          	srli	a1,t1,0x10
41002ea8:	02b8d7b3          	divu	a5,a7,a1
41002eac:	01031613          	slli	a2,t1,0x10
41002eb0:	01065613          	srli	a2,a2,0x10
41002eb4:	010e5713          	srli	a4,t3,0x10
41002eb8:	02b8f6b3          	remu	a3,a7,a1
41002ebc:	02f60533          	mul	a0,a2,a5
41002ec0:	01069693          	slli	a3,a3,0x10
41002ec4:	00e6e8b3          	or	a7,a3,a4
41002ec8:	00a8fc63          	bgeu	a7,a0,41002ee0 <__divdi3+0xc4>
41002ecc:	006888b3          	add	a7,a7,t1
41002ed0:	fff78713          	addi	a4,a5,-1 # ffffff <STACK_SIZE+0xfdffff>
41002ed4:	0068e463          	bltu	a7,t1,41002edc <__divdi3+0xc0>
41002ed8:	40a8ec63          	bltu	a7,a0,410032f0 <__divdi3+0x4d4>
41002edc:	00070793          	mv	a5,a4
41002ee0:	40a888b3          	sub	a7,a7,a0
41002ee4:	02b8d6b3          	divu	a3,a7,a1
41002ee8:	010e1e13          	slli	t3,t3,0x10
41002eec:	010e5e13          	srli	t3,t3,0x10
41002ef0:	02b8f8b3          	remu	a7,a7,a1
41002ef4:	02d60633          	mul	a2,a2,a3
41002ef8:	01089893          	slli	a7,a7,0x10
41002efc:	01c8e8b3          	or	a7,a7,t3
41002f00:	00c8fe63          	bgeu	a7,a2,41002f1c <__divdi3+0x100>
41002f04:	011308b3          	add	a7,t1,a7
41002f08:	fff68713          	addi	a4,a3,-1
41002f0c:	0068e663          	bltu	a7,t1,41002f18 <__divdi3+0xfc>
41002f10:	ffe68693          	addi	a3,a3,-2
41002f14:	00c8e463          	bltu	a7,a2,41002f1c <__divdi3+0x100>
41002f18:	00070693          	mv	a3,a4
41002f1c:	01079513          	slli	a0,a5,0x10
41002f20:	00d56533          	or	a0,a0,a3
41002f24:	00000593          	li	a1,0
41002f28:	00080a63          	beqz	a6,41002f3c <__divdi3+0x120>
41002f2c:	00a037b3          	snez	a5,a0
41002f30:	40b005b3          	neg	a1,a1
41002f34:	40f585b3          	sub	a1,a1,a5
41002f38:	40a00533          	neg	a0,a0
41002f3c:	00008067          	ret
41002f40:	02d5f463          	bgeu	a1,a3,41002f68 <__divdi3+0x14c>
41002f44:	00000593          	li	a1,0
41002f48:	00000513          	li	a0,0
41002f4c:	fddff06f          	j	41002f28 <__divdi3+0x10c>
41002f50:	00a037b3          	snez	a5,a0
41002f54:	40b005b3          	neg	a1,a1
41002f58:	40f585b3          	sub	a1,a1,a5
41002f5c:	40a00eb3          	neg	t4,a0
41002f60:	fff00813          	li	a6,-1
41002f64:	ec5ff06f          	j	41002e28 <__divdi3+0xc>
41002f68:	000107b7          	lui	a5,0x10
41002f6c:	14f6e463          	bltu	a3,a5,410030b4 <__divdi3+0x298>
41002f70:	010007b7          	lui	a5,0x1000
41002f74:	32f6e063          	bltu	a3,a5,41003294 <__divdi3+0x478>
41002f78:	0186d513          	srli	a0,a3,0x18
41002f7c:	01800713          	li	a4,24
41002f80:	00002797          	auipc	a5,0x2
41002f84:	d5478793          	addi	a5,a5,-684 # 41004cd4 <__clz_tab>
41002f88:	00a787b3          	add	a5,a5,a0
41002f8c:	0007c883          	lbu	a7,0(a5)
41002f90:	02000793          	li	a5,32
41002f94:	00e888b3          	add	a7,a7,a4
41002f98:	41178333          	sub	t1,a5,a7
41002f9c:	1d179863          	bne	a5,a7,4100316c <__divdi3+0x350>
41002fa0:	32b6e263          	bltu	a3,a1,410032c4 <__divdi3+0x4a8>
41002fa4:	00ceb533          	sltu	a0,t4,a2
41002fa8:	00154513          	xori	a0,a0,1
41002fac:	00000593          	li	a1,0
41002fb0:	f79ff06f          	j	41002f28 <__divdi3+0x10c>
41002fb4:	00061663          	bnez	a2,41002fc0 <__divdi3+0x1a4>
41002fb8:	00100313          	li	t1,1
41002fbc:	02d35333          	divu	t1,t1,a3
41002fc0:	00010737          	lui	a4,0x10
41002fc4:	0ce36063          	bltu	t1,a4,41003084 <__divdi3+0x268>
41002fc8:	010007b7          	lui	a5,0x1000
41002fcc:	2ef36063          	bltu	t1,a5,410032ac <__divdi3+0x490>
41002fd0:	01835693          	srli	a3,t1,0x18
41002fd4:	01800793          	li	a5,24
41002fd8:	00002717          	auipc	a4,0x2
41002fdc:	cfc70713          	addi	a4,a4,-772 # 41004cd4 <__clz_tab>
41002fe0:	00d70733          	add	a4,a4,a3
41002fe4:	00074703          	lbu	a4,0(a4)
41002fe8:	02000693          	li	a3,32
41002fec:	00f707b3          	add	a5,a4,a5
41002ff0:	40f68733          	sub	a4,a3,a5
41002ff4:	0cf69a63          	bne	a3,a5,410030c8 <__divdi3+0x2ac>
41002ff8:	01031f13          	slli	t5,t1,0x10
41002ffc:	406586b3          	sub	a3,a1,t1
41003000:	01035f93          	srli	t6,t1,0x10
41003004:	010f5f13          	srli	t5,t5,0x10
41003008:	00100593          	li	a1,1
4100300c:	010e5713          	srli	a4,t3,0x10
41003010:	03f6d7b3          	divu	a5,a3,t6
41003014:	03f6f6b3          	remu	a3,a3,t6
41003018:	03e78633          	mul	a2,a5,t5
4100301c:	01069693          	slli	a3,a3,0x10
41003020:	00e6e733          	or	a4,a3,a4
41003024:	00c77c63          	bgeu	a4,a2,4100303c <__divdi3+0x220>
41003028:	00670733          	add	a4,a4,t1
4100302c:	fff78693          	addi	a3,a5,-1 # ffffff <STACK_SIZE+0xfdffff>
41003030:	00676463          	bltu	a4,t1,41003038 <__divdi3+0x21c>
41003034:	2cc76463          	bltu	a4,a2,410032fc <__divdi3+0x4e0>
41003038:	00068793          	mv	a5,a3
4100303c:	40c70733          	sub	a4,a4,a2
41003040:	03f756b3          	divu	a3,a4,t6
41003044:	010e1e13          	slli	t3,t3,0x10
41003048:	010e5e13          	srli	t3,t3,0x10
4100304c:	03f77733          	remu	a4,a4,t6
41003050:	03e68f33          	mul	t5,a3,t5
41003054:	01071713          	slli	a4,a4,0x10
41003058:	01c76733          	or	a4,a4,t3
4100305c:	01e77e63          	bgeu	a4,t5,41003078 <__divdi3+0x25c>
41003060:	00e30733          	add	a4,t1,a4
41003064:	fff68613          	addi	a2,a3,-1
41003068:	00676663          	bltu	a4,t1,41003074 <__divdi3+0x258>
4100306c:	ffe68693          	addi	a3,a3,-2
41003070:	01e76463          	bltu	a4,t5,41003078 <__divdi3+0x25c>
41003074:	00060693          	mv	a3,a2
41003078:	01079513          	slli	a0,a5,0x10
4100307c:	00d56533          	or	a0,a0,a3
41003080:	ea9ff06f          	j	41002f28 <__divdi3+0x10c>
41003084:	0ff00713          	li	a4,255
41003088:	00030693          	mv	a3,t1
4100308c:	f46776e3          	bgeu	a4,t1,41002fd8 <__divdi3+0x1bc>
41003090:	00835693          	srli	a3,t1,0x8
41003094:	00800793          	li	a5,8
41003098:	f41ff06f          	j	41002fd8 <__divdi3+0x1bc>
4100309c:	0ff00713          	li	a4,255
410030a0:	00060693          	mv	a3,a2
410030a4:	dcc776e3          	bgeu	a4,a2,41002e70 <__divdi3+0x54>
410030a8:	00865693          	srli	a3,a2,0x8
410030ac:	00800793          	li	a5,8
410030b0:	dc1ff06f          	j	41002e70 <__divdi3+0x54>
410030b4:	0ff00793          	li	a5,255
410030b8:	1ed7f463          	bgeu	a5,a3,410032a0 <__divdi3+0x484>
410030bc:	0086d513          	srli	a0,a3,0x8
410030c0:	00800713          	li	a4,8
410030c4:	ebdff06f          	j	41002f80 <__divdi3+0x164>
410030c8:	00e31333          	sll	t1,t1,a4
410030cc:	00f5d633          	srl	a2,a1,a5
410030d0:	01035f93          	srli	t6,t1,0x10
410030d4:	03f658b3          	divu	a7,a2,t6
410030d8:	00e595b3          	sll	a1,a1,a4
410030dc:	00fed7b3          	srl	a5,t4,a5
410030e0:	00b7e6b3          	or	a3,a5,a1
410030e4:	01031f13          	slli	t5,t1,0x10
410030e8:	010f5f13          	srli	t5,t5,0x10
410030ec:	0106d513          	srli	a0,a3,0x10
410030f0:	00ee9e33          	sll	t3,t4,a4
410030f4:	03f677b3          	remu	a5,a2,t6
410030f8:	031f05b3          	mul	a1,t5,a7
410030fc:	01079793          	slli	a5,a5,0x10
41003100:	00a7e7b3          	or	a5,a5,a0
41003104:	00b7fe63          	bgeu	a5,a1,41003120 <__divdi3+0x304>
41003108:	006787b3          	add	a5,a5,t1
4100310c:	fff88713          	addi	a4,a7,-1 # 7fffffff <_end+0x3ef976b3>
41003110:	1c67ec63          	bltu	a5,t1,410032e8 <__divdi3+0x4cc>
41003114:	1cb7fa63          	bgeu	a5,a1,410032e8 <__divdi3+0x4cc>
41003118:	ffe88893          	addi	a7,a7,-2
4100311c:	006787b3          	add	a5,a5,t1
41003120:	40b787b3          	sub	a5,a5,a1
41003124:	03f7d733          	divu	a4,a5,t6
41003128:	01069593          	slli	a1,a3,0x10
4100312c:	0105d593          	srli	a1,a1,0x10
41003130:	03f7f7b3          	remu	a5,a5,t6
41003134:	02ef0633          	mul	a2,t5,a4
41003138:	01079693          	slli	a3,a5,0x10
4100313c:	00b6e5b3          	or	a1,a3,a1
41003140:	00c5fe63          	bgeu	a1,a2,4100315c <__divdi3+0x340>
41003144:	006585b3          	add	a1,a1,t1
41003148:	fff70793          	addi	a5,a4,-1
4100314c:	1865e663          	bltu	a1,t1,410032d8 <__divdi3+0x4bc>
41003150:	18c5f463          	bgeu	a1,a2,410032d8 <__divdi3+0x4bc>
41003154:	ffe70713          	addi	a4,a4,-2
41003158:	006585b3          	add	a1,a1,t1
4100315c:	01089893          	slli	a7,a7,0x10
41003160:	40c586b3          	sub	a3,a1,a2
41003164:	00e8e5b3          	or	a1,a7,a4
41003168:	ea5ff06f          	j	4100300c <__divdi3+0x1f0>
4100316c:	011657b3          	srl	a5,a2,a7
41003170:	006696b3          	sll	a3,a3,t1
41003174:	00d7e6b3          	or	a3,a5,a3
41003178:	0115d733          	srl	a4,a1,a7
4100317c:	0106df93          	srli	t6,a3,0x10
41003180:	03f75f33          	divu	t5,a4,t6
41003184:	01069e13          	slli	t3,a3,0x10
41003188:	010e5e13          	srli	t3,t3,0x10
4100318c:	006595b3          	sll	a1,a1,t1
41003190:	011ed8b3          	srl	a7,t4,a7
41003194:	00b8e5b3          	or	a1,a7,a1
41003198:	0105d793          	srli	a5,a1,0x10
4100319c:	00661633          	sll	a2,a2,t1
410031a0:	03f77733          	remu	a4,a4,t6
410031a4:	03ee0533          	mul	a0,t3,t5
410031a8:	01071713          	slli	a4,a4,0x10
410031ac:	00f767b3          	or	a5,a4,a5
410031b0:	00a7fe63          	bgeu	a5,a0,410031cc <__divdi3+0x3b0>
410031b4:	00d787b3          	add	a5,a5,a3
410031b8:	ffff0713          	addi	a4,t5,-1
410031bc:	12d7e263          	bltu	a5,a3,410032e0 <__divdi3+0x4c4>
410031c0:	12a7f063          	bgeu	a5,a0,410032e0 <__divdi3+0x4c4>
410031c4:	ffef0f13          	addi	t5,t5,-2
410031c8:	00d787b3          	add	a5,a5,a3
410031cc:	40a787b3          	sub	a5,a5,a0
410031d0:	03f7d733          	divu	a4,a5,t6
410031d4:	01059593          	slli	a1,a1,0x10
410031d8:	0105d593          	srli	a1,a1,0x10
410031dc:	03f7f7b3          	remu	a5,a5,t6
410031e0:	02ee08b3          	mul	a7,t3,a4
410031e4:	01079793          	slli	a5,a5,0x10
410031e8:	00b7e5b3          	or	a1,a5,a1
410031ec:	0115fe63          	bgeu	a1,a7,41003208 <__divdi3+0x3ec>
410031f0:	00d585b3          	add	a1,a1,a3
410031f4:	fff70793          	addi	a5,a4,-1
410031f8:	0cd5ec63          	bltu	a1,a3,410032d0 <__divdi3+0x4b4>
410031fc:	0d15fa63          	bgeu	a1,a7,410032d0 <__divdi3+0x4b4>
41003200:	ffe70713          	addi	a4,a4,-2
41003204:	00d585b3          	add	a1,a1,a3
41003208:	010f1513          	slli	a0,t5,0x10
4100320c:	00010fb7          	lui	t6,0x10
41003210:	00e56533          	or	a0,a0,a4
41003214:	ffff8793          	addi	a5,t6,-1 # ffff <STACK_SIZE-0x10001>
41003218:	00f57733          	and	a4,a0,a5
4100321c:	01055e13          	srli	t3,a0,0x10
41003220:	00f677b3          	and	a5,a2,a5
41003224:	01065613          	srli	a2,a2,0x10
41003228:	02f70f33          	mul	t5,a4,a5
4100322c:	411585b3          	sub	a1,a1,a7
41003230:	02c70733          	mul	a4,a4,a2
41003234:	010f5693          	srli	a3,t5,0x10
41003238:	02fe07b3          	mul	a5,t3,a5
4100323c:	00f70733          	add	a4,a4,a5
41003240:	00e68733          	add	a4,a3,a4
41003244:	02ce0633          	mul	a2,t3,a2
41003248:	00f77463          	bgeu	a4,a5,41003250 <__divdi3+0x434>
4100324c:	01f60633          	add	a2,a2,t6
41003250:	01075e13          	srli	t3,a4,0x10
41003254:	00ce0633          	add	a2,t3,a2
41003258:	02c5e863          	bltu	a1,a2,41003288 <__divdi3+0x46c>
4100325c:	00c58663          	beq	a1,a2,41003268 <__divdi3+0x44c>
41003260:	00000593          	li	a1,0
41003264:	cc5ff06f          	j	41002f28 <__divdi3+0x10c>
41003268:	000106b7          	lui	a3,0x10
4100326c:	fff68693          	addi	a3,a3,-1 # ffff <STACK_SIZE-0x10001>
41003270:	00d77733          	and	a4,a4,a3
41003274:	01071793          	slli	a5,a4,0x10
41003278:	00df7f33          	and	t5,t5,a3
4100327c:	006e9eb3          	sll	t4,t4,t1
41003280:	01e787b3          	add	a5,a5,t5
41003284:	fcfefee3          	bgeu	t4,a5,41003260 <__divdi3+0x444>
41003288:	fff50513          	addi	a0,a0,-1
4100328c:	00000593          	li	a1,0
41003290:	c99ff06f          	j	41002f28 <__divdi3+0x10c>
41003294:	0106d513          	srli	a0,a3,0x10
41003298:	01000713          	li	a4,16
4100329c:	ce5ff06f          	j	41002f80 <__divdi3+0x164>
410032a0:	00068513          	mv	a0,a3
410032a4:	00000713          	li	a4,0
410032a8:	cd9ff06f          	j	41002f80 <__divdi3+0x164>
410032ac:	01035693          	srli	a3,t1,0x10
410032b0:	01000793          	li	a5,16
410032b4:	d25ff06f          	j	41002fd8 <__divdi3+0x1bc>
410032b8:	01065693          	srli	a3,a2,0x10
410032bc:	01000793          	li	a5,16
410032c0:	bb1ff06f          	j	41002e70 <__divdi3+0x54>
410032c4:	00000593          	li	a1,0
410032c8:	00100513          	li	a0,1
410032cc:	c5dff06f          	j	41002f28 <__divdi3+0x10c>
410032d0:	00078713          	mv	a4,a5
410032d4:	f35ff06f          	j	41003208 <__divdi3+0x3ec>
410032d8:	00078713          	mv	a4,a5
410032dc:	e81ff06f          	j	4100315c <__divdi3+0x340>
410032e0:	00070f13          	mv	t5,a4
410032e4:	ee9ff06f          	j	410031cc <__divdi3+0x3b0>
410032e8:	00070893          	mv	a7,a4
410032ec:	e35ff06f          	j	41003120 <__divdi3+0x304>
410032f0:	ffe78793          	addi	a5,a5,-2
410032f4:	006888b3          	add	a7,a7,t1
410032f8:	be9ff06f          	j	41002ee0 <__divdi3+0xc4>
410032fc:	ffe78793          	addi	a5,a5,-2
41003300:	00670733          	add	a4,a4,t1
41003304:	d39ff06f          	j	4100303c <__divdi3+0x220>

41003308 <__addsf3>:
41003308:	00800737          	lui	a4,0x800
4100330c:	ff010113          	addi	sp,sp,-16
41003310:	fff70713          	addi	a4,a4,-1 # 7fffff <STACK_SIZE+0x7dffff>
41003314:	0175d693          	srli	a3,a1,0x17
41003318:	01755793          	srli	a5,a0,0x17
4100331c:	00a77633          	and	a2,a4,a0
41003320:	00812423          	sw	s0,8(sp)
41003324:	00b77733          	and	a4,a4,a1
41003328:	01212023          	sw	s2,0(sp)
4100332c:	01f55413          	srli	s0,a0,0x1f
41003330:	0ff7f913          	zext.b	s2,a5
41003334:	0ff6f693          	zext.b	a3,a3
41003338:	00112623          	sw	ra,12(sp)
4100333c:	00912223          	sw	s1,4(sp)
41003340:	01f5d593          	srli	a1,a1,0x1f
41003344:	00060813          	mv	a6,a2
41003348:	00040e13          	mv	t3,s0
4100334c:	00361313          	slli	t1,a2,0x3
41003350:	00371893          	slli	a7,a4,0x3
41003354:	40d90eb3          	sub	t4,s2,a3
41003358:	04b40863          	beq	s0,a1,410033a8 <__addsf3+0xa0>
4100335c:	03d05263          	blez	t4,41003380 <__addsf3+0x78>
41003360:	0a069263          	bnez	a3,41003404 <__addsf3+0xfc>
41003364:	2a088263          	beqz	a7,41003608 <__addsf3+0x300>
41003368:	fffe8793          	addi	a5,t4,-1
4100336c:	3a078663          	beqz	a5,41003718 <__addsf3+0x410>
41003370:	0ff00713          	li	a4,255
41003374:	24ee8263          	beq	t4,a4,410035b8 <__addsf3+0x2b0>
41003378:	00078e93          	mv	t4,a5
4100337c:	0980006f          	j	41003414 <__addsf3+0x10c>
41003380:	140e8263          	beqz	t4,410034c4 <__addsf3+0x1bc>
41003384:	41268eb3          	sub	t4,a3,s2
41003388:	2a091863          	bnez	s2,41003638 <__addsf3+0x330>
4100338c:	26030a63          	beqz	t1,41003600 <__addsf3+0x2f8>
41003390:	fffe8793          	addi	a5,t4,-1
41003394:	3a078c63          	beqz	a5,4100374c <__addsf3+0x444>
41003398:	0ff00613          	li	a2,255
4100339c:	20ce8a63          	beq	t4,a2,410035b0 <__addsf3+0x2a8>
410033a0:	00078e93          	mv	t4,a5
410033a4:	2a40006f          	j	41003648 <__addsf3+0x340>
410033a8:	23d05263          	blez	t4,410035cc <__addsf3+0x2c4>
410033ac:	14068863          	beqz	a3,410034fc <__addsf3+0x1f4>
410033b0:	0ff00793          	li	a5,255
410033b4:	20f90263          	beq	s2,a5,410035b8 <__addsf3+0x2b0>
410033b8:	040007b7          	lui	a5,0x4000
410033bc:	00f8e8b3          	or	a7,a7,a5
410033c0:	01b00793          	li	a5,27
410033c4:	00100713          	li	a4,1
410033c8:	17d7de63          	bge	a5,t4,41003544 <__addsf3+0x23c>
410033cc:	00670533          	add	a0,a4,t1
410033d0:	04000737          	lui	a4,0x4000
410033d4:	00e57733          	and	a4,a0,a4
410033d8:	1a070463          	beqz	a4,41003580 <__addsf3+0x278>
410033dc:	00190913          	addi	s2,s2,1
410033e0:	0ff00793          	li	a5,255
410033e4:	14f90a63          	beq	s2,a5,41003538 <__addsf3+0x230>
410033e8:	7e000737          	lui	a4,0x7e000
410033ec:	00155793          	srli	a5,a0,0x1
410033f0:	fff70713          	addi	a4,a4,-1 # 7dffffff <_end+0x3cf976b3>
410033f4:	00157513          	andi	a0,a0,1
410033f8:	00e7f7b3          	and	a5,a5,a4
410033fc:	00a7e533          	or	a0,a5,a0
41003400:	05c0006f          	j	4100345c <__addsf3+0x154>
41003404:	0ff00793          	li	a5,255
41003408:	1af90863          	beq	s2,a5,410035b8 <__addsf3+0x2b0>
4100340c:	040007b7          	lui	a5,0x4000
41003410:	00f8e8b3          	or	a7,a7,a5
41003414:	01b00793          	li	a5,27
41003418:	00100513          	li	a0,1
4100341c:	0fd7de63          	bge	a5,t4,41003518 <__addsf3+0x210>
41003420:	40a30533          	sub	a0,t1,a0
41003424:	04000737          	lui	a4,0x4000
41003428:	00e577b3          	and	a5,a0,a4
4100342c:	14078a63          	beqz	a5,41003580 <__addsf3+0x278>
41003430:	fff70713          	addi	a4,a4,-1 # 3ffffff <STACK_SIZE+0x3fdffff>
41003434:	00e574b3          	and	s1,a0,a4
41003438:	00048513          	mv	a0,s1
4100343c:	238010ef          	jal	ra,41004674 <__clzsi2>
41003440:	ffb50713          	addi	a4,a0,-5
41003444:	00e49533          	sll	a0,s1,a4
41003448:	1d275463          	bge	a4,s2,41003610 <__addsf3+0x308>
4100344c:	fc0007b7          	lui	a5,0xfc000
41003450:	fff78793          	addi	a5,a5,-1 # fbffffff <_end+0xbaf976b3>
41003454:	40e90933          	sub	s2,s2,a4
41003458:	00f57533          	and	a0,a0,a5
4100345c:	00757793          	andi	a5,a0,7
41003460:	00078a63          	beqz	a5,41003474 <__addsf3+0x16c>
41003464:	00f57713          	andi	a4,a0,15
41003468:	00400793          	li	a5,4
4100346c:	00f70463          	beq	a4,a5,41003474 <__addsf3+0x16c>
41003470:	00450513          	addi	a0,a0,4
41003474:	04000737          	lui	a4,0x4000
41003478:	00e57733          	and	a4,a0,a4
4100347c:	10070663          	beqz	a4,41003588 <__addsf3+0x280>
41003480:	00190793          	addi	a5,s2,1
41003484:	0ff00713          	li	a4,255
41003488:	00040e13          	mv	t3,s0
4100348c:	0ae78663          	beq	a5,a4,41003538 <__addsf3+0x230>
41003490:	00651813          	slli	a6,a0,0x6
41003494:	00985813          	srli	a6,a6,0x9
41003498:	0ff7f793          	zext.b	a5,a5
4100349c:	00c12083          	lw	ra,12(sp)
410034a0:	00812403          	lw	s0,8(sp)
410034a4:	01779513          	slli	a0,a5,0x17
410034a8:	01056533          	or	a0,a0,a6
410034ac:	01fe1793          	slli	a5,t3,0x1f
410034b0:	00412483          	lw	s1,4(sp)
410034b4:	00012903          	lw	s2,0(sp)
410034b8:	00f56533          	or	a0,a0,a5
410034bc:	01010113          	addi	sp,sp,16
410034c0:	00008067          	ret
410034c4:	00190693          	addi	a3,s2,1
410034c8:	0fe6f693          	andi	a3,a3,254
410034cc:	1a069863          	bnez	a3,4100367c <__addsf3+0x374>
410034d0:	0c091c63          	bnez	s2,410035a8 <__addsf3+0x2a0>
410034d4:	28030463          	beqz	t1,4100375c <__addsf3+0x454>
410034d8:	00000793          	li	a5,0
410034dc:	fc0880e3          	beqz	a7,4100349c <__addsf3+0x194>
410034e0:	41130533          	sub	a0,t1,a7
410034e4:	04000737          	lui	a4,0x4000
410034e8:	00e57733          	and	a4,a0,a4
410034ec:	28070e63          	beqz	a4,41003788 <__addsf3+0x480>
410034f0:	40688533          	sub	a0,a7,t1
410034f4:	00058413          	mv	s0,a1
410034f8:	f65ff06f          	j	4100345c <__addsf3+0x154>
410034fc:	10088663          	beqz	a7,41003608 <__addsf3+0x300>
41003500:	fffe8793          	addi	a5,t4,-1
41003504:	1e078c63          	beqz	a5,410036fc <__addsf3+0x3f4>
41003508:	0ff00713          	li	a4,255
4100350c:	0aee8663          	beq	t4,a4,410035b8 <__addsf3+0x2b0>
41003510:	00078e93          	mv	t4,a5
41003514:	eadff06f          	j	410033c0 <__addsf3+0xb8>
41003518:	02000513          	li	a0,32
4100351c:	41d50533          	sub	a0,a0,t4
41003520:	00a89533          	sll	a0,a7,a0
41003524:	00a03533          	snez	a0,a0
41003528:	01d8d8b3          	srl	a7,a7,t4
4100352c:	01156533          	or	a0,a0,a7
41003530:	ef1ff06f          	j	41003420 <__addsf3+0x118>
41003534:	00040e13          	mv	t3,s0
41003538:	0ff00793          	li	a5,255
4100353c:	00000813          	li	a6,0
41003540:	f5dff06f          	j	4100349c <__addsf3+0x194>
41003544:	02000713          	li	a4,32
41003548:	41d70733          	sub	a4,a4,t4
4100354c:	00e89733          	sll	a4,a7,a4
41003550:	01d8d533          	srl	a0,a7,t4
41003554:	00e03733          	snez	a4,a4
41003558:	00a76733          	or	a4,a4,a0
4100355c:	e71ff06f          	j	410033cc <__addsf3+0xc4>
41003560:	00190793          	addi	a5,s2,1
41003564:	0fe7f693          	andi	a3,a5,254
41003568:	12068c63          	beqz	a3,410036a0 <__addsf3+0x398>
4100356c:	0ff00713          	li	a4,255
41003570:	fce784e3          	beq	a5,a4,41003538 <__addsf3+0x230>
41003574:	01130533          	add	a0,t1,a7
41003578:	00155513          	srli	a0,a0,0x1
4100357c:	00078913          	mv	s2,a5
41003580:	00757793          	andi	a5,a0,7
41003584:	ee0790e3          	bnez	a5,41003464 <__addsf3+0x15c>
41003588:	00355613          	srli	a2,a0,0x3
4100358c:	0ff00793          	li	a5,255
41003590:	02f90463          	beq	s2,a5,410035b8 <__addsf3+0x2b0>
41003594:	00961513          	slli	a0,a2,0x9
41003598:	00955813          	srli	a6,a0,0x9
4100359c:	0ff97793          	zext.b	a5,s2
410035a0:	00040e13          	mv	t3,s0
410035a4:	ef9ff06f          	j	4100349c <__addsf3+0x194>
410035a8:	18031063          	bnez	t1,41003728 <__addsf3+0x420>
410035ac:	00088863          	beqz	a7,410035bc <__addsf3+0x2b4>
410035b0:	00058413          	mv	s0,a1
410035b4:	00070613          	mv	a2,a4
410035b8:	f6060ee3          	beqz	a2,41003534 <__addsf3+0x22c>
410035bc:	00000e13          	li	t3,0
410035c0:	0ff00793          	li	a5,255
410035c4:	00400837          	lui	a6,0x400
410035c8:	ed5ff06f          	j	4100349c <__addsf3+0x194>
410035cc:	f80e8ae3          	beqz	t4,41003560 <__addsf3+0x258>
410035d0:	41268eb3          	sub	t4,a3,s2
410035d4:	10090063          	beqz	s2,410036d4 <__addsf3+0x3cc>
410035d8:	0ff00793          	li	a5,255
410035dc:	fcf68ce3          	beq	a3,a5,410035b4 <__addsf3+0x2ac>
410035e0:	040007b7          	lui	a5,0x4000
410035e4:	00f36333          	or	t1,t1,a5
410035e8:	01b00793          	li	a5,27
410035ec:	15d7d263          	bge	a5,t4,41003730 <__addsf3+0x428>
410035f0:	00100313          	li	t1,1
410035f4:	01130533          	add	a0,t1,a7
410035f8:	00068913          	mv	s2,a3
410035fc:	dd5ff06f          	j	410033d0 <__addsf3+0xc8>
41003600:	00070613          	mv	a2,a4
41003604:	00058413          	mv	s0,a1
41003608:	000e8913          	mv	s2,t4
4100360c:	f81ff06f          	j	4100358c <__addsf3+0x284>
41003610:	41270733          	sub	a4,a4,s2
41003614:	00170493          	addi	s1,a4,1 # 4000001 <STACK_SIZE+0x3fe0001>
41003618:	02000793          	li	a5,32
4100361c:	409787b3          	sub	a5,a5,s1
41003620:	00f517b3          	sll	a5,a0,a5
41003624:	00f037b3          	snez	a5,a5
41003628:	00955533          	srl	a0,a0,s1
4100362c:	00a7e533          	or	a0,a5,a0
41003630:	00000913          	li	s2,0
41003634:	e29ff06f          	j	4100345c <__addsf3+0x154>
41003638:	0ff00793          	li	a5,255
4100363c:	f6f68ae3          	beq	a3,a5,410035b0 <__addsf3+0x2a8>
41003640:	040007b7          	lui	a5,0x4000
41003644:	00f36333          	or	t1,t1,a5
41003648:	01b00793          	li	a5,27
4100364c:	00100513          	li	a0,1
41003650:	01d7ce63          	blt	a5,t4,4100366c <__addsf3+0x364>
41003654:	02000793          	li	a5,32
41003658:	41d787b3          	sub	a5,a5,t4
4100365c:	00f317b3          	sll	a5,t1,a5
41003660:	00f03533          	snez	a0,a5
41003664:	01d35333          	srl	t1,t1,t4
41003668:	00656533          	or	a0,a0,t1
4100366c:	40a88533          	sub	a0,a7,a0
41003670:	00068913          	mv	s2,a3
41003674:	00058413          	mv	s0,a1
41003678:	dadff06f          	j	41003424 <__addsf3+0x11c>
4100367c:	411304b3          	sub	s1,t1,a7
41003680:	040007b7          	lui	a5,0x4000
41003684:	00f4f7b3          	and	a5,s1,a5
41003688:	06079463          	bnez	a5,410036f0 <__addsf3+0x3e8>
4100368c:	da0496e3          	bnez	s1,41003438 <__addsf3+0x130>
41003690:	00000e13          	li	t3,0
41003694:	00000793          	li	a5,0
41003698:	00000813          	li	a6,0
4100369c:	e01ff06f          	j	4100349c <__addsf3+0x194>
410036a0:	08091263          	bnez	s2,41003724 <__addsf3+0x41c>
410036a4:	0c030c63          	beqz	t1,4100377c <__addsf3+0x474>
410036a8:	00000793          	li	a5,0
410036ac:	de0888e3          	beqz	a7,4100349c <__addsf3+0x194>
410036b0:	01130533          	add	a0,t1,a7
410036b4:	040007b7          	lui	a5,0x4000
410036b8:	00f577b3          	and	a5,a0,a5
410036bc:	ec0782e3          	beqz	a5,41003580 <__addsf3+0x278>
410036c0:	fc0007b7          	lui	a5,0xfc000
410036c4:	fff78793          	addi	a5,a5,-1 # fbffffff <_end+0xbaf976b3>
410036c8:	00f57533          	and	a0,a0,a5
410036cc:	00100913          	li	s2,1
410036d0:	eb1ff06f          	j	41003580 <__addsf3+0x278>
410036d4:	08030e63          	beqz	t1,41003770 <__addsf3+0x468>
410036d8:	fffe8793          	addi	a5,t4,-1
410036dc:	02078063          	beqz	a5,410036fc <__addsf3+0x3f4>
410036e0:	0ff00613          	li	a2,255
410036e4:	ecce88e3          	beq	t4,a2,410035b4 <__addsf3+0x2ac>
410036e8:	00078e93          	mv	t4,a5
410036ec:	efdff06f          	j	410035e8 <__addsf3+0x2e0>
410036f0:	406884b3          	sub	s1,a7,t1
410036f4:	00058413          	mv	s0,a1
410036f8:	d41ff06f          	j	41003438 <__addsf3+0x130>
410036fc:	01130533          	add	a0,t1,a7
41003700:	040007b7          	lui	a5,0x4000
41003704:	00f577b3          	and	a5,a0,a5
41003708:	00100913          	li	s2,1
4100370c:	e6078ae3          	beqz	a5,41003580 <__addsf3+0x278>
41003710:	00200913          	li	s2,2
41003714:	cd5ff06f          	j	410033e8 <__addsf3+0xe0>
41003718:	41130533          	sub	a0,t1,a7
4100371c:	00100913          	li	s2,1
41003720:	d05ff06f          	j	41003424 <__addsf3+0x11c>
41003724:	e80308e3          	beqz	t1,410035b4 <__addsf3+0x2ac>
41003728:	e80888e3          	beqz	a7,410035b8 <__addsf3+0x2b0>
4100372c:	e91ff06f          	j	410035bc <__addsf3+0x2b4>
41003730:	02000793          	li	a5,32
41003734:	41d787b3          	sub	a5,a5,t4
41003738:	00f317b3          	sll	a5,t1,a5
4100373c:	01d35533          	srl	a0,t1,t4
41003740:	00f03333          	snez	t1,a5
41003744:	00a36333          	or	t1,t1,a0
41003748:	eadff06f          	j	410035f4 <__addsf3+0x2ec>
4100374c:	40688533          	sub	a0,a7,t1
41003750:	00058413          	mv	s0,a1
41003754:	00100913          	li	s2,1
41003758:	ccdff06f          	j	41003424 <__addsf3+0x11c>
4100375c:	f2088ae3          	beqz	a7,41003690 <__addsf3+0x388>
41003760:	00058e13          	mv	t3,a1
41003764:	00070813          	mv	a6,a4
41003768:	00000793          	li	a5,0
4100376c:	d31ff06f          	j	4100349c <__addsf3+0x194>
41003770:	00070613          	mv	a2,a4
41003774:	000e8913          	mv	s2,t4
41003778:	e15ff06f          	j	4100358c <__addsf3+0x284>
4100377c:	00070813          	mv	a6,a4
41003780:	00000793          	li	a5,0
41003784:	d19ff06f          	j	4100349c <__addsf3+0x194>
41003788:	de051ce3          	bnez	a0,41003580 <__addsf3+0x278>
4100378c:	00000e13          	li	t3,0
41003790:	00000813          	li	a6,0
41003794:	d09ff06f          	j	4100349c <__addsf3+0x194>

41003798 <__divsf3>:
41003798:	fc010113          	addi	sp,sp,-64
4100379c:	01755793          	srli	a5,a0,0x17
410037a0:	03212823          	sw	s2,48(sp)
410037a4:	03512223          	sw	s5,36(sp)
410037a8:	01712e23          	sw	s7,28(sp)
410037ac:	00951a93          	slli	s5,a0,0x9
410037b0:	01f55913          	srli	s2,a0,0x1f
410037b4:	02112e23          	sw	ra,60(sp)
410037b8:	02812c23          	sw	s0,56(sp)
410037bc:	02912a23          	sw	s1,52(sp)
410037c0:	03312623          	sw	s3,44(sp)
410037c4:	03412423          	sw	s4,40(sp)
410037c8:	03612023          	sw	s6,32(sp)
410037cc:	0ff7f793          	zext.b	a5,a5
410037d0:	009ada93          	srli	s5,s5,0x9
410037d4:	00090b93          	mv	s7,s2
410037d8:	14078863          	beqz	a5,41003928 <__divsf3+0x190>
410037dc:	0ff00713          	li	a4,255
410037e0:	14e78e63          	beq	a5,a4,4100393c <__divsf3+0x1a4>
410037e4:	003a9513          	slli	a0,s5,0x3
410037e8:	040006b7          	lui	a3,0x4000
410037ec:	00d56ab3          	or	s5,a0,a3
410037f0:	f8178a13          	addi	s4,a5,-127 # 3ffff81 <STACK_SIZE+0x3fdff81>
410037f4:	00000413          	li	s0,0
410037f8:	00000b13          	li	s6,0
410037fc:	0175d793          	srli	a5,a1,0x17
41003800:	00959993          	slli	s3,a1,0x9
41003804:	0ff7f793          	zext.b	a5,a5
41003808:	0099d993          	srli	s3,s3,0x9
4100380c:	01f5d493          	srli	s1,a1,0x1f
41003810:	0e078663          	beqz	a5,410038fc <__divsf3+0x164>
41003814:	0ff00713          	li	a4,255
41003818:	0ce78a63          	beq	a5,a4,410038ec <__divsf3+0x154>
4100381c:	04000737          	lui	a4,0x4000
41003820:	00399993          	slli	s3,s3,0x3
41003824:	f8178793          	addi	a5,a5,-127
41003828:	00e9e9b3          	or	s3,s3,a4
4100382c:	40fa0a33          	sub	s4,s4,a5
41003830:	00000713          	li	a4,0
41003834:	00e46433          	or	s0,s0,a4
41003838:	00001797          	auipc	a5,0x1
4100383c:	3dc78793          	addi	a5,a5,988 # 41004c14 <cordic_atan+0x60>
41003840:	00241413          	slli	s0,s0,0x2
41003844:	00f40433          	add	s0,s0,a5
41003848:	00042683          	lw	a3,0(s0)
4100384c:	00994933          	xor	s2,s2,s1
41003850:	00f686b3          	add	a3,a3,a5
41003854:	00068067          	jr	a3 # 4000000 <STACK_SIZE+0x3fe0000>
41003858:	00098a93          	mv	s5,s3
4100385c:	00048b93          	mv	s7,s1
41003860:	00070b13          	mv	s6,a4
41003864:	00100793          	li	a5,1
41003868:	1afb0263          	beq	s6,a5,41003a0c <__divsf3+0x274>
4100386c:	140b0463          	beqz	s6,410039b4 <__divsf3+0x21c>
41003870:	00200793          	li	a5,2
41003874:	04fb0a63          	beq	s6,a5,410038c8 <__divsf3+0x130>
41003878:	00300793          	li	a5,3
4100387c:	12fb1c63          	bne	s6,a5,410039b4 <__divsf3+0x21c>
41003880:	00000913          	li	s2,0
41003884:	0ff00513          	li	a0,255
41003888:	00400737          	lui	a4,0x400
4100388c:	03c12083          	lw	ra,60(sp)
41003890:	03812403          	lw	s0,56(sp)
41003894:	01751513          	slli	a0,a0,0x17
41003898:	01f91913          	slli	s2,s2,0x1f
4100389c:	00e56533          	or	a0,a0,a4
410038a0:	03412483          	lw	s1,52(sp)
410038a4:	02c12983          	lw	s3,44(sp)
410038a8:	02812a03          	lw	s4,40(sp)
410038ac:	02412a83          	lw	s5,36(sp)
410038b0:	02012b03          	lw	s6,32(sp)
410038b4:	01c12b83          	lw	s7,28(sp)
410038b8:	01256533          	or	a0,a0,s2
410038bc:	03012903          	lw	s2,48(sp)
410038c0:	04010113          	addi	sp,sp,64
410038c4:	00008067          	ret
410038c8:	000b8913          	mv	s2,s7
410038cc:	0ff00513          	li	a0,255
410038d0:	00000713          	li	a4,0
410038d4:	fb9ff06f          	j	4100388c <__divsf3+0xf4>
410038d8:	01b00793          	li	a5,27
410038dc:	14d7de63          	bge	a5,a3,41003a38 <__divsf3+0x2a0>
410038e0:	00000513          	li	a0,0
410038e4:	00000713          	li	a4,0
410038e8:	fa5ff06f          	j	4100388c <__divsf3+0xf4>
410038ec:	f01a0a13          	addi	s4,s4,-255
410038f0:	0a099e63          	bnez	s3,410039ac <__divsf3+0x214>
410038f4:	00200693          	li	a3,2
410038f8:	00c0006f          	j	41003904 <__divsf3+0x16c>
410038fc:	08099863          	bnez	s3,4100398c <__divsf3+0x1f4>
41003900:	00100693          	li	a3,1
41003904:	00d46433          	or	s0,s0,a3
41003908:	00001717          	auipc	a4,0x1
4100390c:	34c70713          	addi	a4,a4,844 # 41004c54 <cordic_atan+0xa0>
41003910:	00241413          	slli	s0,s0,0x2
41003914:	00e40433          	add	s0,s0,a4
41003918:	00042783          	lw	a5,0(s0)
4100391c:	00994933          	xor	s2,s2,s1
41003920:	00e787b3          	add	a5,a5,a4
41003924:	00078067          	jr	a5
41003928:	020a9c63          	bnez	s5,41003960 <__divsf3+0x1c8>
4100392c:	00400413          	li	s0,4
41003930:	00000a13          	li	s4,0
41003934:	00100b13          	li	s6,1
41003938:	ec5ff06f          	j	410037fc <__divsf3+0x64>
4100393c:	000a9a63          	bnez	s5,41003950 <__divsf3+0x1b8>
41003940:	00800413          	li	s0,8
41003944:	0ff00a13          	li	s4,255
41003948:	00200b13          	li	s6,2
4100394c:	eb1ff06f          	j	410037fc <__divsf3+0x64>
41003950:	00c00413          	li	s0,12
41003954:	0ff00a13          	li	s4,255
41003958:	00300b13          	li	s6,3
4100395c:	ea1ff06f          	j	410037fc <__divsf3+0x64>
41003960:	000a8513          	mv	a0,s5
41003964:	00b12623          	sw	a1,12(sp)
41003968:	50d000ef          	jal	ra,41004674 <__clzsi2>
4100396c:	ffb50793          	addi	a5,a0,-5
41003970:	00fa9ab3          	sll	s5,s5,a5
41003974:	f8a00793          	li	a5,-118
41003978:	00c12583          	lw	a1,12(sp)
4100397c:	40a78a33          	sub	s4,a5,a0
41003980:	00000413          	li	s0,0
41003984:	00000b13          	li	s6,0
41003988:	e75ff06f          	j	410037fc <__divsf3+0x64>
4100398c:	00098513          	mv	a0,s3
41003990:	4e5000ef          	jal	ra,41004674 <__clzsi2>
41003994:	ffb50713          	addi	a4,a0,-5
41003998:	00aa07b3          	add	a5,s4,a0
4100399c:	00e999b3          	sll	s3,s3,a4
410039a0:	07678a13          	addi	s4,a5,118
410039a4:	00000713          	li	a4,0
410039a8:	e8dff06f          	j	41003834 <__divsf3+0x9c>
410039ac:	00300713          	li	a4,3
410039b0:	e85ff06f          	j	41003834 <__divsf3+0x9c>
410039b4:	000b8913          	mv	s2,s7
410039b8:	07fa0793          	addi	a5,s4,127
410039bc:	06f05863          	blez	a5,41003a2c <__divsf3+0x294>
410039c0:	007af713          	andi	a4,s5,7
410039c4:	00070a63          	beqz	a4,410039d8 <__divsf3+0x240>
410039c8:	00faf713          	andi	a4,s5,15
410039cc:	00400693          	li	a3,4
410039d0:	00d70463          	beq	a4,a3,410039d8 <__divsf3+0x240>
410039d4:	004a8a93          	addi	s5,s5,4
410039d8:	08000737          	lui	a4,0x8000
410039dc:	00eaf733          	and	a4,s5,a4
410039e0:	00070a63          	beqz	a4,410039f4 <__divsf3+0x25c>
410039e4:	f80007b7          	lui	a5,0xf8000
410039e8:	fff78793          	addi	a5,a5,-1 # f7ffffff <_end+0xb6f976b3>
410039ec:	00fafab3          	and	s5,s5,a5
410039f0:	080a0793          	addi	a5,s4,128
410039f4:	0fe00713          	li	a4,254
410039f8:	ecf74ae3          	blt	a4,a5,410038cc <__divsf3+0x134>
410039fc:	006a9513          	slli	a0,s5,0x6
41003a00:	00955713          	srli	a4,a0,0x9
41003a04:	0ff7f513          	zext.b	a0,a5
41003a08:	e85ff06f          	j	4100388c <__divsf3+0xf4>
41003a0c:	000b8913          	mv	s2,s7
41003a10:	00000513          	li	a0,0
41003a14:	00000713          	li	a4,0
41003a18:	e75ff06f          	j	4100388c <__divsf3+0xf4>
41003a1c:	00048b93          	mv	s7,s1
41003a20:	00068b13          	mv	s6,a3
41003a24:	00000a93          	li	s5,0
41003a28:	e3dff06f          	j	41003864 <__divsf3+0xcc>
41003a2c:	00100693          	li	a3,1
41003a30:	40f686b3          	sub	a3,a3,a5
41003a34:	ea0792e3          	bnez	a5,410038d8 <__divsf3+0x140>
41003a38:	09ea0713          	addi	a4,s4,158
41003a3c:	00ea9733          	sll	a4,s5,a4
41003a40:	00dad7b3          	srl	a5,s5,a3
41003a44:	00e03733          	snez	a4,a4
41003a48:	00f76733          	or	a4,a4,a5
41003a4c:	00777793          	andi	a5,a4,7
41003a50:	00078a63          	beqz	a5,41003a64 <__divsf3+0x2cc>
41003a54:	00f77793          	andi	a5,a4,15
41003a58:	00400693          	li	a3,4
41003a5c:	00d78463          	beq	a5,a3,41003a64 <__divsf3+0x2cc>
41003a60:	00470713          	addi	a4,a4,4 # 8000004 <STACK_SIZE+0x7fe0004>
41003a64:	040007b7          	lui	a5,0x4000
41003a68:	00f777b3          	and	a5,a4,a5
41003a6c:	0c078a63          	beqz	a5,41003b40 <__divsf3+0x3a8>
41003a70:	00100513          	li	a0,1
41003a74:	00000713          	li	a4,0
41003a78:	e15ff06f          	j	4100388c <__divsf3+0xf4>
41003a7c:	00010737          	lui	a4,0x10
41003a80:	00599813          	slli	a6,s3,0x5
41003a84:	fff70713          	addi	a4,a4,-1 # ffff <STACK_SIZE-0x10001>
41003a88:	01085593          	srli	a1,a6,0x10
41003a8c:	00e876b3          	and	a3,a6,a4
41003a90:	093af463          	bgeu	s5,s3,41003b18 <__divsf3+0x380>
41003a94:	02bad633          	divu	a2,s5,a1
41003a98:	fffa0a13          	addi	s4,s4,-1
41003a9c:	000a8713          	mv	a4,s5
41003aa0:	00000793          	li	a5,0
41003aa4:	02c688b3          	mul	a7,a3,a2
41003aa8:	02b77733          	remu	a4,a4,a1
41003aac:	01071713          	slli	a4,a4,0x10
41003ab0:	00f767b3          	or	a5,a4,a5
41003ab4:	0117fe63          	bgeu	a5,a7,41003ad0 <__divsf3+0x338>
41003ab8:	010787b3          	add	a5,a5,a6
41003abc:	fff60713          	addi	a4,a2,-1
41003ac0:	0707ec63          	bltu	a5,a6,41003b38 <__divsf3+0x3a0>
41003ac4:	0717fa63          	bgeu	a5,a7,41003b38 <__divsf3+0x3a0>
41003ac8:	ffe60613          	addi	a2,a2,-2
41003acc:	010787b3          	add	a5,a5,a6
41003ad0:	411787b3          	sub	a5,a5,a7
41003ad4:	02b7d533          	divu	a0,a5,a1
41003ad8:	02b7f7b3          	remu	a5,a5,a1
41003adc:	02d50733          	mul	a4,a0,a3
41003ae0:	01079793          	slli	a5,a5,0x10
41003ae4:	00e7fe63          	bgeu	a5,a4,41003b00 <__divsf3+0x368>
41003ae8:	010787b3          	add	a5,a5,a6
41003aec:	fff50693          	addi	a3,a0,-1
41003af0:	0507e063          	bltu	a5,a6,41003b30 <__divsf3+0x398>
41003af4:	02e7fe63          	bgeu	a5,a4,41003b30 <__divsf3+0x398>
41003af8:	ffe50513          	addi	a0,a0,-2
41003afc:	010787b3          	add	a5,a5,a6
41003b00:	01061613          	slli	a2,a2,0x10
41003b04:	40e787b3          	sub	a5,a5,a4
41003b08:	00a66533          	or	a0,a2,a0
41003b0c:	00f037b3          	snez	a5,a5
41003b10:	00f56ab3          	or	s5,a0,a5
41003b14:	ea5ff06f          	j	410039b8 <__divsf3+0x220>
41003b18:	001ad713          	srli	a4,s5,0x1
41003b1c:	02b75633          	divu	a2,a4,a1
41003b20:	01fa9793          	slli	a5,s5,0x1f
41003b24:	0107d793          	srli	a5,a5,0x10
41003b28:	02d608b3          	mul	a7,a2,a3
41003b2c:	f7dff06f          	j	41003aa8 <__divsf3+0x310>
41003b30:	00068513          	mv	a0,a3
41003b34:	fcdff06f          	j	41003b00 <__divsf3+0x368>
41003b38:	00070613          	mv	a2,a4
41003b3c:	f95ff06f          	j	41003ad0 <__divsf3+0x338>
41003b40:	00671713          	slli	a4,a4,0x6
41003b44:	00975713          	srli	a4,a4,0x9
41003b48:	00000513          	li	a0,0
41003b4c:	d41ff06f          	j	4100388c <__divsf3+0xf4>

41003b50 <__gesf2>:
41003b50:	01755693          	srli	a3,a0,0x17
41003b54:	00800737          	lui	a4,0x800
41003b58:	fff70713          	addi	a4,a4,-1 # 7fffff <STACK_SIZE+0x7dffff>
41003b5c:	0175d613          	srli	a2,a1,0x17
41003b60:	0ff6f693          	zext.b	a3,a3
41003b64:	0ff00813          	li	a6,255
41003b68:	00a778b3          	and	a7,a4,a0
41003b6c:	01f55793          	srli	a5,a0,0x1f
41003b70:	00b77733          	and	a4,a4,a1
41003b74:	0ff67613          	zext.b	a2,a2
41003b78:	01f5d513          	srli	a0,a1,0x1f
41003b7c:	03068063          	beq	a3,a6,41003b9c <__gesf2+0x4c>
41003b80:	03060263          	beq	a2,a6,41003ba4 <__gesf2+0x54>
41003b84:	04069463          	bnez	a3,41003bcc <__gesf2+0x7c>
41003b88:	02061c63          	bnez	a2,41003bc0 <__gesf2+0x70>
41003b8c:	02071a63          	bnez	a4,41003bc0 <__gesf2+0x70>
41003b90:	00000513          	li	a0,0
41003b94:	00089e63          	bnez	a7,41003bb0 <__gesf2+0x60>
41003b98:	00008067          	ret
41003b9c:	06089063          	bnez	a7,41003bfc <__gesf2+0xac>
41003ba0:	02d61663          	bne	a2,a3,41003bcc <__gesf2+0x7c>
41003ba4:	04071c63          	bnez	a4,41003bfc <__gesf2+0xac>
41003ba8:	00068c63          	beqz	a3,41003bc0 <__gesf2+0x70>
41003bac:	02a78663          	beq	a5,a0,41003bd8 <__gesf2+0x88>
41003bb0:	00100513          	li	a0,1
41003bb4:	fe0782e3          	beqz	a5,41003b98 <__gesf2+0x48>
41003bb8:	fff00513          	li	a0,-1
41003bbc:	00008067          	ret
41003bc0:	fe0896e3          	bnez	a7,41003bac <__gesf2+0x5c>
41003bc4:	fe050ae3          	beqz	a0,41003bb8 <__gesf2+0x68>
41003bc8:	00008067          	ret
41003bcc:	fe0610e3          	bnez	a2,41003bac <__gesf2+0x5c>
41003bd0:	fc071ee3          	bnez	a4,41003bac <__gesf2+0x5c>
41003bd4:	fddff06f          	j	41003bb0 <__gesf2+0x60>
41003bd8:	00d64c63          	blt	a2,a3,41003bf0 <__gesf2+0xa0>
41003bdc:	fec6c4e3          	blt	a3,a2,41003bc4 <__gesf2+0x74>
41003be0:	01176863          	bltu	a4,a7,41003bf0 <__gesf2+0xa0>
41003be4:	fee8e0e3          	bltu	a7,a4,41003bc4 <__gesf2+0x74>
41003be8:	00000513          	li	a0,0
41003bec:	00008067          	ret
41003bf0:	fc0514e3          	bnez	a0,41003bb8 <__gesf2+0x68>
41003bf4:	00100513          	li	a0,1
41003bf8:	00008067          	ret
41003bfc:	ffe00513          	li	a0,-2
41003c00:	00008067          	ret

41003c04 <__lesf2>:
41003c04:	01755693          	srli	a3,a0,0x17
41003c08:	00800737          	lui	a4,0x800
41003c0c:	fff70713          	addi	a4,a4,-1 # 7fffff <STACK_SIZE+0x7dffff>
41003c10:	0175d613          	srli	a2,a1,0x17
41003c14:	0ff6f693          	zext.b	a3,a3
41003c18:	0ff00813          	li	a6,255
41003c1c:	00a778b3          	and	a7,a4,a0
41003c20:	01f55793          	srli	a5,a0,0x1f
41003c24:	00b77733          	and	a4,a4,a1
41003c28:	0ff67613          	zext.b	a2,a2
41003c2c:	01f5d513          	srli	a0,a1,0x1f
41003c30:	03068063          	beq	a3,a6,41003c50 <__lesf2+0x4c>
41003c34:	03060263          	beq	a2,a6,41003c58 <__lesf2+0x54>
41003c38:	04069863          	bnez	a3,41003c88 <__lesf2+0x84>
41003c3c:	02061263          	bnez	a2,41003c60 <__lesf2+0x5c>
41003c40:	02071063          	bnez	a4,41003c60 <__lesf2+0x5c>
41003c44:	00000513          	li	a0,0
41003c48:	02089063          	bnez	a7,41003c68 <__lesf2+0x64>
41003c4c:	00008067          	ret
41003c50:	02089463          	bnez	a7,41003c78 <__lesf2+0x74>
41003c54:	02d61a63          	bne	a2,a3,41003c88 <__lesf2+0x84>
41003c58:	02071063          	bnez	a4,41003c78 <__lesf2+0x74>
41003c5c:	00069463          	bnez	a3,41003c64 <__lesf2+0x60>
41003c60:	02088063          	beqz	a7,41003c80 <__lesf2+0x7c>
41003c64:	02a78863          	beq	a5,a0,41003c94 <__lesf2+0x90>
41003c68:	00100513          	li	a0,1
41003c6c:	fe0780e3          	beqz	a5,41003c4c <__lesf2+0x48>
41003c70:	fff00513          	li	a0,-1
41003c74:	00008067          	ret
41003c78:	00200513          	li	a0,2
41003c7c:	00008067          	ret
41003c80:	fe0508e3          	beqz	a0,41003c70 <__lesf2+0x6c>
41003c84:	00008067          	ret
41003c88:	fc061ee3          	bnez	a2,41003c64 <__lesf2+0x60>
41003c8c:	fc071ce3          	bnez	a4,41003c64 <__lesf2+0x60>
41003c90:	fd9ff06f          	j	41003c68 <__lesf2+0x64>
41003c94:	00d64c63          	blt	a2,a3,41003cac <__lesf2+0xa8>
41003c98:	fec6c4e3          	blt	a3,a2,41003c80 <__lesf2+0x7c>
41003c9c:	01176863          	bltu	a4,a7,41003cac <__lesf2+0xa8>
41003ca0:	fee8e0e3          	bltu	a7,a4,41003c80 <__lesf2+0x7c>
41003ca4:	00000513          	li	a0,0
41003ca8:	00008067          	ret
41003cac:	fc0512e3          	bnez	a0,41003c70 <__lesf2+0x6c>
41003cb0:	00100513          	li	a0,1
41003cb4:	00008067          	ret

41003cb8 <__mulsf3>:
41003cb8:	fd010113          	addi	sp,sp,-48
41003cbc:	02812423          	sw	s0,40(sp)
41003cc0:	01755413          	srli	s0,a0,0x17
41003cc4:	01412c23          	sw	s4,24(sp)
41003cc8:	01512a23          	sw	s5,20(sp)
41003ccc:	02112623          	sw	ra,44(sp)
41003cd0:	00951a93          	slli	s5,a0,0x9
41003cd4:	02912223          	sw	s1,36(sp)
41003cd8:	03212023          	sw	s2,32(sp)
41003cdc:	01312e23          	sw	s3,28(sp)
41003ce0:	01612823          	sw	s6,16(sp)
41003ce4:	0ff47413          	zext.b	s0,s0
41003ce8:	009ada93          	srli	s5,s5,0x9
41003cec:	01f55a13          	srli	s4,a0,0x1f
41003cf0:	20040263          	beqz	s0,41003ef4 <__mulsf3+0x23c>
41003cf4:	0ff00793          	li	a5,255
41003cf8:	20f40863          	beq	s0,a5,41003f08 <__mulsf3+0x250>
41003cfc:	003a9a93          	slli	s5,s5,0x3
41003d00:	040007b7          	lui	a5,0x4000
41003d04:	00faeab3          	or	s5,s5,a5
41003d08:	f8140413          	addi	s0,s0,-127
41003d0c:	00000913          	li	s2,0
41003d10:	00000b13          	li	s6,0
41003d14:	0175d793          	srli	a5,a1,0x17
41003d18:	00959993          	slli	s3,a1,0x9
41003d1c:	0ff7f793          	zext.b	a5,a5
41003d20:	0099d993          	srli	s3,s3,0x9
41003d24:	01f5d493          	srli	s1,a1,0x1f
41003d28:	1a078e63          	beqz	a5,41003ee4 <__mulsf3+0x22c>
41003d2c:	0ff00713          	li	a4,255
41003d30:	1ee78663          	beq	a5,a4,41003f1c <__mulsf3+0x264>
41003d34:	00399993          	slli	s3,s3,0x3
41003d38:	f8178793          	addi	a5,a5,-127 # 3ffff81 <STACK_SIZE+0x3fdff81>
41003d3c:	04000737          	lui	a4,0x4000
41003d40:	00e9e9b3          	or	s3,s3,a4
41003d44:	00f40433          	add	s0,s0,a5
41003d48:	00000513          	li	a0,0
41003d4c:	009a46b3          	xor	a3,s4,s1
41003d50:	00f00713          	li	a4,15
41003d54:	00068593          	mv	a1,a3
41003d58:	00140613          	addi	a2,s0,1
41003d5c:	0b276463          	bltu	a4,s2,41003e04 <__mulsf3+0x14c>
41003d60:	00001717          	auipc	a4,0x1
41003d64:	f3470713          	addi	a4,a4,-204 # 41004c94 <cordic_atan+0xe0>
41003d68:	00291913          	slli	s2,s2,0x2
41003d6c:	00e90933          	add	s2,s2,a4
41003d70:	00092783          	lw	a5,0(s2)
41003d74:	00e787b3          	add	a5,a5,a4
41003d78:	00078067          	jr	a5
41003d7c:	00048593          	mv	a1,s1
41003d80:	00098a93          	mv	s5,s3
41003d84:	00050b13          	mv	s6,a0
41003d88:	00200793          	li	a5,2
41003d8c:	04fb0c63          	beq	s6,a5,41003de4 <__mulsf3+0x12c>
41003d90:	00300793          	li	a5,3
41003d94:	06fb0063          	beq	s6,a5,41003df4 <__mulsf3+0x13c>
41003d98:	00100793          	li	a5,1
41003d9c:	00058693          	mv	a3,a1
41003da0:	0efb1863          	bne	s6,a5,41003e90 <__mulsf3+0x1d8>
41003da4:	00000513          	li	a0,0
41003da8:	00000a93          	li	s5,0
41003dac:	02c12083          	lw	ra,44(sp)
41003db0:	02812403          	lw	s0,40(sp)
41003db4:	01751513          	slli	a0,a0,0x17
41003db8:	01556533          	or	a0,a0,s5
41003dbc:	01f69793          	slli	a5,a3,0x1f
41003dc0:	02412483          	lw	s1,36(sp)
41003dc4:	02012903          	lw	s2,32(sp)
41003dc8:	01c12983          	lw	s3,28(sp)
41003dcc:	01812a03          	lw	s4,24(sp)
41003dd0:	01412a83          	lw	s5,20(sp)
41003dd4:	01012b03          	lw	s6,16(sp)
41003dd8:	00f56533          	or	a0,a0,a5
41003ddc:	03010113          	addi	sp,sp,48
41003de0:	00008067          	ret
41003de4:	00058693          	mv	a3,a1
41003de8:	0ff00513          	li	a0,255
41003dec:	00000a93          	li	s5,0
41003df0:	fbdff06f          	j	41003dac <__mulsf3+0xf4>
41003df4:	00000693          	li	a3,0
41003df8:	0ff00513          	li	a0,255
41003dfc:	00400ab7          	lui	s5,0x400
41003e00:	fadff06f          	j	41003dac <__mulsf3+0xf4>
41003e04:	00010337          	lui	t1,0x10
41003e08:	fff30713          	addi	a4,t1,-1 # ffff <STACK_SIZE-0x10001>
41003e0c:	010ad513          	srli	a0,s5,0x10
41003e10:	0109d893          	srli	a7,s3,0x10
41003e14:	00eafab3          	and	s5,s5,a4
41003e18:	00e9f9b3          	and	s3,s3,a4
41003e1c:	03598833          	mul	a6,s3,s5
41003e20:	033509b3          	mul	s3,a0,s3
41003e24:	01085793          	srli	a5,a6,0x10
41003e28:	03588ab3          	mul	s5,a7,s5
41003e2c:	013a85b3          	add	a1,s5,s3
41003e30:	00b787b3          	add	a5,a5,a1
41003e34:	03150533          	mul	a0,a0,a7
41003e38:	0137f463          	bgeu	a5,s3,41003e40 <__mulsf3+0x188>
41003e3c:	00650533          	add	a0,a0,t1
41003e40:	000105b7          	lui	a1,0x10
41003e44:	fff58593          	addi	a1,a1,-1 # ffff <STACK_SIZE-0x10001>
41003e48:	00b7f733          	and	a4,a5,a1
41003e4c:	00b87833          	and	a6,a6,a1
41003e50:	01071713          	slli	a4,a4,0x10
41003e54:	01070733          	add	a4,a4,a6
41003e58:	00671593          	slli	a1,a4,0x6
41003e5c:	0107da93          	srli	s5,a5,0x10
41003e60:	00b035b3          	snez	a1,a1
41003e64:	01a75713          	srli	a4,a4,0x1a
41003e68:	00aa8ab3          	add	s5,s5,a0
41003e6c:	00e5e733          	or	a4,a1,a4
41003e70:	006a9a93          	slli	s5,s5,0x6
41003e74:	00eaeab3          	or	s5,s5,a4
41003e78:	080007b7          	lui	a5,0x8000
41003e7c:	00faf7b3          	and	a5,s5,a5
41003e80:	18078863          	beqz	a5,41004010 <__mulsf3+0x358>
41003e84:	001ad793          	srli	a5,s5,0x1
41003e88:	001afa93          	andi	s5,s5,1
41003e8c:	0157eab3          	or	s5,a5,s5
41003e90:	07f60793          	addi	a5,a2,127
41003e94:	10f05a63          	blez	a5,41003fa8 <__mulsf3+0x2f0>
41003e98:	007af713          	andi	a4,s5,7
41003e9c:	00070a63          	beqz	a4,41003eb0 <__mulsf3+0x1f8>
41003ea0:	00faf713          	andi	a4,s5,15
41003ea4:	00400593          	li	a1,4
41003ea8:	00b70463          	beq	a4,a1,41003eb0 <__mulsf3+0x1f8>
41003eac:	004a8a93          	addi	s5,s5,4 # 400004 <STACK_SIZE+0x3e0004>
41003eb0:	08000737          	lui	a4,0x8000
41003eb4:	00eaf733          	and	a4,s5,a4
41003eb8:	00070a63          	beqz	a4,41003ecc <__mulsf3+0x214>
41003ebc:	f80007b7          	lui	a5,0xf8000
41003ec0:	fff78793          	addi	a5,a5,-1 # f7ffffff <_end+0xb6f976b3>
41003ec4:	00fafab3          	and	s5,s5,a5
41003ec8:	08060793          	addi	a5,a2,128
41003ecc:	0fe00713          	li	a4,254
41003ed0:	12f74a63          	blt	a4,a5,41004004 <__mulsf3+0x34c>
41003ed4:	006a9a93          	slli	s5,s5,0x6
41003ed8:	009ada93          	srli	s5,s5,0x9
41003edc:	0ff7f513          	zext.b	a0,a5
41003ee0:	ecdff06f          	j	41003dac <__mulsf3+0xf4>
41003ee4:	0a099263          	bnez	s3,41003f88 <__mulsf3+0x2d0>
41003ee8:	00196913          	ori	s2,s2,1
41003eec:	00100513          	li	a0,1
41003ef0:	e5dff06f          	j	41003d4c <__mulsf3+0x94>
41003ef4:	060a9463          	bnez	s5,41003f5c <__mulsf3+0x2a4>
41003ef8:	00400913          	li	s2,4
41003efc:	00000413          	li	s0,0
41003f00:	00100b13          	li	s6,1
41003f04:	e11ff06f          	j	41003d14 <__mulsf3+0x5c>
41003f08:	040a9263          	bnez	s5,41003f4c <__mulsf3+0x294>
41003f0c:	00800913          	li	s2,8
41003f10:	0ff00413          	li	s0,255
41003f14:	00200b13          	li	s6,2
41003f18:	dfdff06f          	j	41003d14 <__mulsf3+0x5c>
41003f1c:	0ff40413          	addi	s0,s0,255
41003f20:	02099063          	bnez	s3,41003f40 <__mulsf3+0x288>
41003f24:	00296913          	ori	s2,s2,2
41003f28:	00200513          	li	a0,2
41003f2c:	e21ff06f          	j	41003d4c <__mulsf3+0x94>
41003f30:	00200793          	li	a5,2
41003f34:	000a0593          	mv	a1,s4
41003f38:	e4fb1ce3          	bne	s6,a5,41003d90 <__mulsf3+0xd8>
41003f3c:	ea9ff06f          	j	41003de4 <__mulsf3+0x12c>
41003f40:	00396913          	ori	s2,s2,3
41003f44:	00300513          	li	a0,3
41003f48:	e05ff06f          	j	41003d4c <__mulsf3+0x94>
41003f4c:	00c00913          	li	s2,12
41003f50:	0ff00413          	li	s0,255
41003f54:	00300b13          	li	s6,3
41003f58:	dbdff06f          	j	41003d14 <__mulsf3+0x5c>
41003f5c:	000a8513          	mv	a0,s5
41003f60:	00b12623          	sw	a1,12(sp)
41003f64:	710000ef          	jal	ra,41004674 <__clzsi2>
41003f68:	ffb50793          	addi	a5,a0,-5
41003f6c:	f8a00413          	li	s0,-118
41003f70:	00c12583          	lw	a1,12(sp)
41003f74:	00fa9ab3          	sll	s5,s5,a5
41003f78:	40a40433          	sub	s0,s0,a0
41003f7c:	00000913          	li	s2,0
41003f80:	00000b13          	li	s6,0
41003f84:	d91ff06f          	j	41003d14 <__mulsf3+0x5c>
41003f88:	00098513          	mv	a0,s3
41003f8c:	6e8000ef          	jal	ra,41004674 <__clzsi2>
41003f90:	ffb50793          	addi	a5,a0,-5
41003f94:	40a40433          	sub	s0,s0,a0
41003f98:	00f999b3          	sll	s3,s3,a5
41003f9c:	f8a40413          	addi	s0,s0,-118
41003fa0:	00000513          	li	a0,0
41003fa4:	da9ff06f          	j	41003d4c <__mulsf3+0x94>
41003fa8:	00100713          	li	a4,1
41003fac:	40f70733          	sub	a4,a4,a5
41003fb0:	04079463          	bnez	a5,41003ff8 <__mulsf3+0x340>
41003fb4:	09e60793          	addi	a5,a2,158
41003fb8:	00fa97b3          	sll	a5,s5,a5
41003fbc:	00ead733          	srl	a4,s5,a4
41003fc0:	00f03ab3          	snez	s5,a5
41003fc4:	00eaeab3          	or	s5,s5,a4
41003fc8:	007af793          	andi	a5,s5,7
41003fcc:	00078a63          	beqz	a5,41003fe0 <__mulsf3+0x328>
41003fd0:	00faf793          	andi	a5,s5,15
41003fd4:	00400713          	li	a4,4
41003fd8:	00e78463          	beq	a5,a4,41003fe0 <__mulsf3+0x328>
41003fdc:	004a8a93          	addi	s5,s5,4
41003fe0:	040007b7          	lui	a5,0x4000
41003fe4:	00faf7b3          	and	a5,s5,a5
41003fe8:	02078863          	beqz	a5,41004018 <__mulsf3+0x360>
41003fec:	00100513          	li	a0,1
41003ff0:	00000a93          	li	s5,0
41003ff4:	db9ff06f          	j	41003dac <__mulsf3+0xf4>
41003ff8:	01b00793          	li	a5,27
41003ffc:	dae7c4e3          	blt	a5,a4,41003da4 <__mulsf3+0xec>
41004000:	fb5ff06f          	j	41003fb4 <__mulsf3+0x2fc>
41004004:	0ff00513          	li	a0,255
41004008:	00000a93          	li	s5,0
4100400c:	da1ff06f          	j	41003dac <__mulsf3+0xf4>
41004010:	00040613          	mv	a2,s0
41004014:	e7dff06f          	j	41003e90 <__mulsf3+0x1d8>
41004018:	006a9a93          	slli	s5,s5,0x6
4100401c:	009ada93          	srli	s5,s5,0x9
41004020:	00000513          	li	a0,0
41004024:	d89ff06f          	j	41003dac <__mulsf3+0xf4>

41004028 <__subsf3>:
41004028:	ff010113          	addi	sp,sp,-16
4100402c:	00800737          	lui	a4,0x800
41004030:	fff70713          	addi	a4,a4,-1 # 7fffff <STACK_SIZE+0x7dffff>
41004034:	0175d693          	srli	a3,a1,0x17
41004038:	00912223          	sw	s1,4(sp)
4100403c:	01755493          	srli	s1,a0,0x17
41004040:	00a777b3          	and	a5,a4,a0
41004044:	01f55893          	srli	a7,a0,0x1f
41004048:	00b77733          	and	a4,a4,a1
4100404c:	01212023          	sw	s2,0(sp)
41004050:	0ff4f493          	zext.b	s1,s1
41004054:	0ff6f693          	zext.b	a3,a3
41004058:	00112623          	sw	ra,12(sp)
4100405c:	00812423          	sw	s0,8(sp)
41004060:	0ff00813          	li	a6,255
41004064:	00078613          	mv	a2,a5
41004068:	00088913          	mv	s2,a7
4100406c:	00379313          	slli	t1,a5,0x3
41004070:	01f5d593          	srli	a1,a1,0x1f
41004074:	00371e13          	slli	t3,a4,0x3
41004078:	40d48533          	sub	a0,s1,a3
4100407c:	11068263          	beq	a3,a6,41004180 <__subsf3+0x158>
41004080:	0015c593          	xori	a1,a1,1
41004084:	10b88e63          	beq	a7,a1,410041a0 <__subsf3+0x178>
41004088:	0ca05863          	blez	a0,41004158 <__subsf3+0x130>
4100408c:	10069063          	bnez	a3,4100418c <__subsf3+0x164>
41004090:	280e0e63          	beqz	t3,4100432c <__subsf3+0x304>
41004094:	fff50713          	addi	a4,a0,-1
41004098:	3a070063          	beqz	a4,41004438 <__subsf3+0x410>
4100409c:	0ff00793          	li	a5,255
410040a0:	22f50a63          	beq	a0,a5,410042d4 <__subsf3+0x2ac>
410040a4:	00070513          	mv	a0,a4
410040a8:	01b00713          	li	a4,27
410040ac:	00100793          	li	a5,1
410040b0:	1aa75063          	bge	a4,a0,41004250 <__subsf3+0x228>
410040b4:	40f307b3          	sub	a5,t1,a5
410040b8:	04000737          	lui	a4,0x4000
410040bc:	00e7f6b3          	and	a3,a5,a4
410040c0:	1c068e63          	beqz	a3,4100429c <__subsf3+0x274>
410040c4:	fff70713          	addi	a4,a4,-1 # 3ffffff <STACK_SIZE+0x3fdffff>
410040c8:	00e7f433          	and	s0,a5,a4
410040cc:	00040513          	mv	a0,s0
410040d0:	5a4000ef          	jal	ra,41004674 <__clzsi2>
410040d4:	ffb50513          	addi	a0,a0,-5
410040d8:	00a417b3          	sll	a5,s0,a0
410040dc:	24955c63          	bge	a0,s1,41004334 <__subsf3+0x30c>
410040e0:	fc000737          	lui	a4,0xfc000
410040e4:	fff70713          	addi	a4,a4,-1 # fbffffff <_end+0xbaf976b3>
410040e8:	40a484b3          	sub	s1,s1,a0
410040ec:	00e7f7b3          	and	a5,a5,a4
410040f0:	0077f713          	andi	a4,a5,7
410040f4:	00070a63          	beqz	a4,41004108 <__subsf3+0xe0>
410040f8:	00f7f713          	andi	a4,a5,15
410040fc:	00400693          	li	a3,4
41004100:	00d70463          	beq	a4,a3,41004108 <__subsf3+0xe0>
41004104:	00478793          	addi	a5,a5,4 # 4000004 <STACK_SIZE+0x3fe0004>
41004108:	04000737          	lui	a4,0x4000
4100410c:	00e7f733          	and	a4,a5,a4
41004110:	18070a63          	beqz	a4,410042a4 <__subsf3+0x27c>
41004114:	00148513          	addi	a0,s1,1
41004118:	0ff00713          	li	a4,255
4100411c:	00197893          	andi	a7,s2,1
41004120:	14e50863          	beq	a0,a4,41004270 <__subsf3+0x248>
41004124:	00679793          	slli	a5,a5,0x6
41004128:	0097d793          	srli	a5,a5,0x9
4100412c:	0ff57513          	zext.b	a0,a0
41004130:	00c12083          	lw	ra,12(sp)
41004134:	00812403          	lw	s0,8(sp)
41004138:	01751513          	slli	a0,a0,0x17
4100413c:	00f567b3          	or	a5,a0,a5
41004140:	01f89513          	slli	a0,a7,0x1f
41004144:	00412483          	lw	s1,4(sp)
41004148:	00012903          	lw	s2,0(sp)
4100414c:	00a7e533          	or	a0,a5,a0
41004150:	01010113          	addi	sp,sp,16
41004154:	00008067          	ret
41004158:	0a050263          	beqz	a0,410041fc <__subsf3+0x1d4>
4100415c:	40968533          	sub	a0,a3,s1
41004160:	1e049e63          	bnez	s1,4100435c <__subsf3+0x334>
41004164:	1c030063          	beqz	t1,41004324 <__subsf3+0x2fc>
41004168:	fff50793          	addi	a5,a0,-1
4100416c:	32078863          	beqz	a5,4100449c <__subsf3+0x474>
41004170:	0ff00613          	li	a2,255
41004174:	14c50c63          	beq	a0,a2,410042cc <__subsf3+0x2a4>
41004178:	00078513          	mv	a0,a5
4100417c:	1f00006f          	j	4100436c <__subsf3+0x344>
41004180:	f00e00e3          	beqz	t3,41004080 <__subsf3+0x58>
41004184:	16b88263          	beq	a7,a1,410042e8 <__subsf3+0x2c0>
41004188:	fca058e3          	blez	a0,41004158 <__subsf3+0x130>
4100418c:	0ff00713          	li	a4,255
41004190:	14e48263          	beq	s1,a4,410042d4 <__subsf3+0x2ac>
41004194:	04000737          	lui	a4,0x4000
41004198:	00ee6e33          	or	t3,t3,a4
4100419c:	f0dff06f          	j	410040a8 <__subsf3+0x80>
410041a0:	14a05463          	blez	a0,410042e8 <__subsf3+0x2c0>
410041a4:	08068863          	beqz	a3,41004234 <__subsf3+0x20c>
410041a8:	0ff00793          	li	a5,255
410041ac:	12f48463          	beq	s1,a5,410042d4 <__subsf3+0x2ac>
410041b0:	040007b7          	lui	a5,0x4000
410041b4:	00fe6e33          	or	t3,t3,a5
410041b8:	01b00793          	li	a5,27
410041bc:	1ea7d863          	bge	a5,a0,410043ac <__subsf3+0x384>
410041c0:	00100793          	li	a5,1
410041c4:	006787b3          	add	a5,a5,t1
410041c8:	04000737          	lui	a4,0x4000
410041cc:	00e7f733          	and	a4,a5,a4
410041d0:	0c070663          	beqz	a4,4100429c <__subsf3+0x274>
410041d4:	00148493          	addi	s1,s1,1
410041d8:	0ff00713          	li	a4,255
410041dc:	08e48a63          	beq	s1,a4,41004270 <__subsf3+0x248>
410041e0:	7e0006b7          	lui	a3,0x7e000
410041e4:	0017d713          	srli	a4,a5,0x1
410041e8:	fff68693          	addi	a3,a3,-1 # 7dffffff <_end+0x3cf976b3>
410041ec:	0017f793          	andi	a5,a5,1
410041f0:	00d77733          	and	a4,a4,a3
410041f4:	00f767b3          	or	a5,a4,a5
410041f8:	ef9ff06f          	j	410040f0 <__subsf3+0xc8>
410041fc:	00148693          	addi	a3,s1,1
41004200:	0fe6f693          	andi	a3,a3,254
41004204:	18069263          	bnez	a3,41004388 <__subsf3+0x360>
41004208:	0a049e63          	bnez	s1,410042c4 <__subsf3+0x29c>
4100420c:	26030e63          	beqz	t1,41004488 <__subsf3+0x460>
41004210:	00000513          	li	a0,0
41004214:	f00e0ee3          	beqz	t3,41004130 <__subsf3+0x108>
41004218:	41c307b3          	sub	a5,t1,t3
4100421c:	04000737          	lui	a4,0x4000
41004220:	00e7f733          	and	a4,a5,a4
41004224:	2a070063          	beqz	a4,410044c4 <__subsf3+0x49c>
41004228:	406e07b3          	sub	a5,t3,t1
4100422c:	00058913          	mv	s2,a1
41004230:	ec1ff06f          	j	410040f0 <__subsf3+0xc8>
41004234:	0e0e0c63          	beqz	t3,4100432c <__subsf3+0x304>
41004238:	fff50793          	addi	a5,a0,-1
4100423c:	1e078063          	beqz	a5,4100441c <__subsf3+0x3f4>
41004240:	0ff00713          	li	a4,255
41004244:	08e50863          	beq	a0,a4,410042d4 <__subsf3+0x2ac>
41004248:	00078513          	mv	a0,a5
4100424c:	f6dff06f          	j	410041b8 <__subsf3+0x190>
41004250:	02000793          	li	a5,32
41004254:	40a787b3          	sub	a5,a5,a0
41004258:	00fe17b3          	sll	a5,t3,a5
4100425c:	00ae5533          	srl	a0,t3,a0
41004260:	00f037b3          	snez	a5,a5
41004264:	00a7e7b3          	or	a5,a5,a0
41004268:	e4dff06f          	j	410040b4 <__subsf3+0x8c>
4100426c:	00197893          	andi	a7,s2,1
41004270:	0ff00513          	li	a0,255
41004274:	00000793          	li	a5,0
41004278:	eb9ff06f          	j	41004130 <__subsf3+0x108>
4100427c:	00148693          	addi	a3,s1,1
41004280:	0fe6f593          	andi	a1,a3,254
41004284:	14058263          	beqz	a1,410043c8 <__subsf3+0x3a0>
41004288:	0ff00793          	li	a5,255
4100428c:	fef682e3          	beq	a3,a5,41004270 <__subsf3+0x248>
41004290:	01c307b3          	add	a5,t1,t3
41004294:	0017d793          	srli	a5,a5,0x1
41004298:	00068493          	mv	s1,a3
4100429c:	0077f713          	andi	a4,a5,7
410042a0:	e4071ce3          	bnez	a4,410040f8 <__subsf3+0xd0>
410042a4:	0037d613          	srli	a2,a5,0x3
410042a8:	0ff00793          	li	a5,255
410042ac:	02f48463          	beq	s1,a5,410042d4 <__subsf3+0x2ac>
410042b0:	00961793          	slli	a5,a2,0x9
410042b4:	0097d793          	srli	a5,a5,0x9
410042b8:	0ff4f513          	zext.b	a0,s1
410042bc:	00197893          	andi	a7,s2,1
410042c0:	e71ff06f          	j	41004130 <__subsf3+0x108>
410042c4:	1a031063          	bnez	t1,41004464 <__subsf3+0x43c>
410042c8:	000e0863          	beqz	t3,410042d8 <__subsf3+0x2b0>
410042cc:	00058913          	mv	s2,a1
410042d0:	00070613          	mv	a2,a4
410042d4:	f8060ce3          	beqz	a2,4100426c <__subsf3+0x244>
410042d8:	00000893          	li	a7,0
410042dc:	0ff00513          	li	a0,255
410042e0:	004007b7          	lui	a5,0x400
410042e4:	e4dff06f          	j	41004130 <__subsf3+0x108>
410042e8:	f8050ae3          	beqz	a0,4100427c <__subsf3+0x254>
410042ec:	40968533          	sub	a0,a3,s1
410042f0:	10049663          	bnez	s1,410043fc <__subsf3+0x3d4>
410042f4:	1a030c63          	beqz	t1,410044ac <__subsf3+0x484>
410042f8:	fff50793          	addi	a5,a0,-1
410042fc:	12078063          	beqz	a5,4100441c <__subsf3+0x3f4>
41004300:	0ff00613          	li	a2,255
41004304:	fcc506e3          	beq	a0,a2,410042d0 <__subsf3+0x2a8>
41004308:	00078513          	mv	a0,a5
4100430c:	01b00793          	li	a5,27
41004310:	14a7de63          	bge	a5,a0,4100446c <__subsf3+0x444>
41004314:	00100793          	li	a5,1
41004318:	01c787b3          	add	a5,a5,t3
4100431c:	00068493          	mv	s1,a3
41004320:	ea9ff06f          	j	410041c8 <__subsf3+0x1a0>
41004324:	00070613          	mv	a2,a4
41004328:	00058913          	mv	s2,a1
4100432c:	00050493          	mv	s1,a0
41004330:	f79ff06f          	j	410042a8 <__subsf3+0x280>
41004334:	40950533          	sub	a0,a0,s1
41004338:	00150513          	addi	a0,a0,1
4100433c:	02000713          	li	a4,32
41004340:	40a70733          	sub	a4,a4,a0
41004344:	00e79733          	sll	a4,a5,a4
41004348:	00e03733          	snez	a4,a4
4100434c:	00a7d7b3          	srl	a5,a5,a0
41004350:	00f767b3          	or	a5,a4,a5
41004354:	00000493          	li	s1,0
41004358:	d99ff06f          	j	410040f0 <__subsf3+0xc8>
4100435c:	0ff00793          	li	a5,255
41004360:	f6f686e3          	beq	a3,a5,410042cc <__subsf3+0x2a4>
41004364:	040007b7          	lui	a5,0x4000
41004368:	00f36333          	or	t1,t1,a5
4100436c:	01b00793          	li	a5,27
41004370:	0ca7da63          	bge	a5,a0,41004444 <__subsf3+0x41c>
41004374:	00100793          	li	a5,1
41004378:	40fe07b3          	sub	a5,t3,a5
4100437c:	00068493          	mv	s1,a3
41004380:	00058913          	mv	s2,a1
41004384:	d35ff06f          	j	410040b8 <__subsf3+0x90>
41004388:	41c30433          	sub	s0,t1,t3
4100438c:	040007b7          	lui	a5,0x4000
41004390:	00f477b3          	and	a5,s0,a5
41004394:	06079e63          	bnez	a5,41004410 <__subsf3+0x3e8>
41004398:	d2041ae3          	bnez	s0,410040cc <__subsf3+0xa4>
4100439c:	00000893          	li	a7,0
410043a0:	00000513          	li	a0,0
410043a4:	00000793          	li	a5,0
410043a8:	d89ff06f          	j	41004130 <__subsf3+0x108>
410043ac:	02000713          	li	a4,32
410043b0:	40a70733          	sub	a4,a4,a0
410043b4:	00ee1733          	sll	a4,t3,a4
410043b8:	00ae5533          	srl	a0,t3,a0
410043bc:	00e037b3          	snez	a5,a4
410043c0:	00a7e7b3          	or	a5,a5,a0
410043c4:	e01ff06f          	j	410041c4 <__subsf3+0x19c>
410043c8:	08049c63          	bnez	s1,41004460 <__subsf3+0x438>
410043cc:	0e030663          	beqz	t1,410044b8 <__subsf3+0x490>
410043d0:	00000513          	li	a0,0
410043d4:	d40e0ee3          	beqz	t3,41004130 <__subsf3+0x108>
410043d8:	01c307b3          	add	a5,t1,t3
410043dc:	04000737          	lui	a4,0x4000
410043e0:	00e7f733          	and	a4,a5,a4
410043e4:	ea070ce3          	beqz	a4,4100429c <__subsf3+0x274>
410043e8:	fc000737          	lui	a4,0xfc000
410043ec:	fff70713          	addi	a4,a4,-1 # fbffffff <_end+0xbaf976b3>
410043f0:	00e7f7b3          	and	a5,a5,a4
410043f4:	00100493          	li	s1,1
410043f8:	ea5ff06f          	j	4100429c <__subsf3+0x274>
410043fc:	0ff00793          	li	a5,255
41004400:	ecf688e3          	beq	a3,a5,410042d0 <__subsf3+0x2a8>
41004404:	040007b7          	lui	a5,0x4000
41004408:	00f36333          	or	t1,t1,a5
4100440c:	f01ff06f          	j	4100430c <__subsf3+0x2e4>
41004410:	406e0433          	sub	s0,t3,t1
41004414:	00058913          	mv	s2,a1
41004418:	cb5ff06f          	j	410040cc <__subsf3+0xa4>
4100441c:	01c307b3          	add	a5,t1,t3
41004420:	04000737          	lui	a4,0x4000
41004424:	00e7f733          	and	a4,a5,a4
41004428:	00100493          	li	s1,1
4100442c:	e60708e3          	beqz	a4,4100429c <__subsf3+0x274>
41004430:	00200493          	li	s1,2
41004434:	dadff06f          	j	410041e0 <__subsf3+0x1b8>
41004438:	41c307b3          	sub	a5,t1,t3
4100443c:	00100493          	li	s1,1
41004440:	c79ff06f          	j	410040b8 <__subsf3+0x90>
41004444:	02000713          	li	a4,32
41004448:	40a70733          	sub	a4,a4,a0
4100444c:	00e31733          	sll	a4,t1,a4
41004450:	00a35533          	srl	a0,t1,a0
41004454:	00e037b3          	snez	a5,a4
41004458:	00a7e7b3          	or	a5,a5,a0
4100445c:	f1dff06f          	j	41004378 <__subsf3+0x350>
41004460:	e60308e3          	beqz	t1,410042d0 <__subsf3+0x2a8>
41004464:	e60e08e3          	beqz	t3,410042d4 <__subsf3+0x2ac>
41004468:	e71ff06f          	j	410042d8 <__subsf3+0x2b0>
4100446c:	02000793          	li	a5,32
41004470:	40a787b3          	sub	a5,a5,a0
41004474:	00f31733          	sll	a4,t1,a5
41004478:	00e037b3          	snez	a5,a4
4100447c:	00a35333          	srl	t1,t1,a0
41004480:	0067e7b3          	or	a5,a5,t1
41004484:	e95ff06f          	j	41004318 <__subsf3+0x2f0>
41004488:	f00e0ae3          	beqz	t3,4100439c <__subsf3+0x374>
4100448c:	00058893          	mv	a7,a1
41004490:	00070793          	mv	a5,a4
41004494:	00000513          	li	a0,0
41004498:	c99ff06f          	j	41004130 <__subsf3+0x108>
4100449c:	406e07b3          	sub	a5,t3,t1
410044a0:	00058913          	mv	s2,a1
410044a4:	00100493          	li	s1,1
410044a8:	c11ff06f          	j	410040b8 <__subsf3+0x90>
410044ac:	00070613          	mv	a2,a4
410044b0:	00050493          	mv	s1,a0
410044b4:	df5ff06f          	j	410042a8 <__subsf3+0x280>
410044b8:	00070793          	mv	a5,a4
410044bc:	00000513          	li	a0,0
410044c0:	c71ff06f          	j	41004130 <__subsf3+0x108>
410044c4:	dc079ce3          	bnez	a5,4100429c <__subsf3+0x274>
410044c8:	00000893          	li	a7,0
410044cc:	00000793          	li	a5,0
410044d0:	c61ff06f          	j	41004130 <__subsf3+0x108>

410044d4 <__fixsfsi>:
410044d4:	00800637          	lui	a2,0x800
410044d8:	01755713          	srli	a4,a0,0x17
410044dc:	fff60793          	addi	a5,a2,-1 # 7fffff <STACK_SIZE+0x7dffff>
410044e0:	0ff77713          	zext.b	a4,a4
410044e4:	07e00593          	li	a1,126
410044e8:	00a7f6b3          	and	a3,a5,a0
410044ec:	01f55793          	srli	a5,a0,0x1f
410044f0:	00e5de63          	bge	a1,a4,4100450c <__fixsfsi+0x38>
410044f4:	09d00593          	li	a1,157
410044f8:	00e5de63          	bge	a1,a4,41004514 <__fixsfsi+0x40>
410044fc:	80000537          	lui	a0,0x80000
41004500:	fff54513          	not	a0,a0
41004504:	00a78533          	add	a0,a5,a0
41004508:	00008067          	ret
4100450c:	00000513          	li	a0,0
41004510:	00008067          	ret
41004514:	09500593          	li	a1,149
41004518:	00c6e6b3          	or	a3,a3,a2
4100451c:	02e5c063          	blt	a1,a4,4100453c <__fixsfsi+0x68>
41004520:	09600613          	li	a2,150
41004524:	40e60733          	sub	a4,a2,a4
41004528:	00e6d733          	srl	a4,a3,a4
4100452c:	40e00533          	neg	a0,a4
41004530:	fe0790e3          	bnez	a5,41004510 <__fixsfsi+0x3c>
41004534:	00070513          	mv	a0,a4
41004538:	00008067          	ret
4100453c:	f6a70713          	addi	a4,a4,-150 # 3ffff6a <STACK_SIZE+0x3fdff6a>
41004540:	00e69733          	sll	a4,a3,a4
41004544:	fe9ff06f          	j	4100452c <__fixsfsi+0x58>

41004548 <__floatsisf>:
41004548:	ff010113          	addi	sp,sp,-16
4100454c:	00112623          	sw	ra,12(sp)
41004550:	00812423          	sw	s0,8(sp)
41004554:	00912223          	sw	s1,4(sp)
41004558:	04050a63          	beqz	a0,410045ac <__floatsisf+0x64>
4100455c:	41f55713          	srai	a4,a0,0x1f
41004560:	00a744b3          	xor	s1,a4,a0
41004564:	40e484b3          	sub	s1,s1,a4
41004568:	00050793          	mv	a5,a0
4100456c:	00048513          	mv	a0,s1
41004570:	01f7d413          	srli	s0,a5,0x1f
41004574:	100000ef          	jal	ra,41004674 <__clzsi2>
41004578:	09e00793          	li	a5,158
4100457c:	40a787b3          	sub	a5,a5,a0
41004580:	09600713          	li	a4,150
41004584:	00050693          	mv	a3,a0
41004588:	04f74a63          	blt	a4,a5,410045dc <__floatsisf+0x94>
4100458c:	00800713          	li	a4,8
41004590:	0ff7f513          	zext.b	a0,a5
41004594:	00d75663          	bge	a4,a3,410045a0 <__floatsisf+0x58>
41004598:	ff868693          	addi	a3,a3,-8
4100459c:	00d494b3          	sll	s1,s1,a3
410045a0:	00949493          	slli	s1,s1,0x9
410045a4:	0094d493          	srli	s1,s1,0x9
410045a8:	0100006f          	j	410045b8 <__floatsisf+0x70>
410045ac:	00000413          	li	s0,0
410045b0:	00000513          	li	a0,0
410045b4:	00000493          	li	s1,0
410045b8:	00c12083          	lw	ra,12(sp)
410045bc:	01f41793          	slli	a5,s0,0x1f
410045c0:	00812403          	lw	s0,8(sp)
410045c4:	01751513          	slli	a0,a0,0x17
410045c8:	00956533          	or	a0,a0,s1
410045cc:	00f56533          	or	a0,a0,a5
410045d0:	00412483          	lw	s1,4(sp)
410045d4:	01010113          	addi	sp,sp,16
410045d8:	00008067          	ret
410045dc:	09900713          	li	a4,153
410045e0:	02f75063          	bge	a4,a5,41004600 <__floatsisf+0xb8>
410045e4:	01b50513          	addi	a0,a0,27 # 8000001b <_end+0x3ef976cf>
410045e8:	00500713          	li	a4,5
410045ec:	00a49533          	sll	a0,s1,a0
410045f0:	40d70733          	sub	a4,a4,a3
410045f4:	00e4d4b3          	srl	s1,s1,a4
410045f8:	00a03533          	snez	a0,a0
410045fc:	00a4e4b3          	or	s1,s1,a0
41004600:	00500713          	li	a4,5
41004604:	04d74863          	blt	a4,a3,41004654 <__floatsisf+0x10c>
41004608:	fc000637          	lui	a2,0xfc000
4100460c:	fff60613          	addi	a2,a2,-1 # fbffffff <_end+0xbaf976b3>
41004610:	0074f593          	andi	a1,s1,7
41004614:	00c4f733          	and	a4,s1,a2
41004618:	02058663          	beqz	a1,41004644 <__floatsisf+0xfc>
4100461c:	00f4f493          	andi	s1,s1,15
41004620:	00400593          	li	a1,4
41004624:	02b48063          	beq	s1,a1,41004644 <__floatsisf+0xfc>
41004628:	00470713          	addi	a4,a4,4
4100462c:	040005b7          	lui	a1,0x4000
41004630:	00b775b3          	and	a1,a4,a1
41004634:	00058863          	beqz	a1,41004644 <__floatsisf+0xfc>
41004638:	09f00793          	li	a5,159
4100463c:	00c77733          	and	a4,a4,a2
41004640:	40d787b3          	sub	a5,a5,a3
41004644:	00671493          	slli	s1,a4,0x6
41004648:	0094d493          	srli	s1,s1,0x9
4100464c:	0ff7f513          	zext.b	a0,a5
41004650:	f69ff06f          	j	410045b8 <__floatsisf+0x70>
41004654:	ffb68713          	addi	a4,a3,-5
41004658:	00e494b3          	sll	s1,s1,a4
4100465c:	fc000637          	lui	a2,0xfc000
41004660:	fff60613          	addi	a2,a2,-1 # fbffffff <_end+0xbaf976b3>
41004664:	0074f593          	andi	a1,s1,7
41004668:	00c4f733          	and	a4,s1,a2
4100466c:	fc058ce3          	beqz	a1,41004644 <__floatsisf+0xfc>
41004670:	fadff06f          	j	4100461c <__floatsisf+0xd4>

41004674 <__clzsi2>:
41004674:	000107b7          	lui	a5,0x10
41004678:	02f57463          	bgeu	a0,a5,410046a0 <__clzsi2+0x2c>
4100467c:	0ff00793          	li	a5,255
41004680:	02000713          	li	a4,32
41004684:	06a7e263          	bltu	a5,a0,410046e8 <__clzsi2+0x74>
41004688:	00000797          	auipc	a5,0x0
4100468c:	64c78793          	addi	a5,a5,1612 # 41004cd4 <__clz_tab>
41004690:	00a78533          	add	a0,a5,a0
41004694:	00054503          	lbu	a0,0(a0)
41004698:	40a70533          	sub	a0,a4,a0
4100469c:	00008067          	ret
410046a0:	010007b7          	lui	a5,0x1000
410046a4:	02f57263          	bgeu	a0,a5,410046c8 <__clzsi2+0x54>
410046a8:	00000797          	auipc	a5,0x0
410046ac:	62c78793          	addi	a5,a5,1580 # 41004cd4 <__clz_tab>
410046b0:	01055513          	srli	a0,a0,0x10
410046b4:	00a78533          	add	a0,a5,a0
410046b8:	00054503          	lbu	a0,0(a0)
410046bc:	01000713          	li	a4,16
410046c0:	40a70533          	sub	a0,a4,a0
410046c4:	00008067          	ret
410046c8:	00000797          	auipc	a5,0x0
410046cc:	60c78793          	addi	a5,a5,1548 # 41004cd4 <__clz_tab>
410046d0:	01855513          	srli	a0,a0,0x18
410046d4:	00a78533          	add	a0,a5,a0
410046d8:	00054503          	lbu	a0,0(a0)
410046dc:	00800713          	li	a4,8
410046e0:	40a70533          	sub	a0,a4,a0
410046e4:	00008067          	ret
410046e8:	00000797          	auipc	a5,0x0
410046ec:	5ec78793          	addi	a5,a5,1516 # 41004cd4 <__clz_tab>
410046f0:	00855513          	srli	a0,a0,0x8
410046f4:	00a78533          	add	a0,a5,a0
410046f8:	00054503          	lbu	a0,0(a0)
410046fc:	01800713          	li	a4,24
41004700:	40a70533          	sub	a0,a4,a0
41004704:	00008067          	ret

41004708 <memset>:
41004708:	00f00313          	li	t1,15
4100470c:	00050713          	mv	a4,a0
41004710:	02c37e63          	bgeu	t1,a2,4100474c <memset+0x44>
41004714:	00f77793          	andi	a5,a4,15
41004718:	0a079063          	bnez	a5,410047b8 <memset+0xb0>
4100471c:	08059263          	bnez	a1,410047a0 <memset+0x98>
41004720:	ff067693          	andi	a3,a2,-16
41004724:	00f67613          	andi	a2,a2,15
41004728:	00e686b3          	add	a3,a3,a4
4100472c:	00b72023          	sw	a1,0(a4)
41004730:	00b72223          	sw	a1,4(a4)
41004734:	00b72423          	sw	a1,8(a4)
41004738:	00b72623          	sw	a1,12(a4)
4100473c:	01070713          	addi	a4,a4,16
41004740:	fed766e3          	bltu	a4,a3,4100472c <memset+0x24>
41004744:	00061463          	bnez	a2,4100474c <memset+0x44>
41004748:	00008067          	ret
4100474c:	40c306b3          	sub	a3,t1,a2
41004750:	00269693          	slli	a3,a3,0x2
41004754:	00000297          	auipc	t0,0x0
41004758:	005686b3          	add	a3,a3,t0
4100475c:	00c68067          	jr	12(a3)
41004760:	00b70723          	sb	a1,14(a4)
41004764:	00b706a3          	sb	a1,13(a4)
41004768:	00b70623          	sb	a1,12(a4)
4100476c:	00b705a3          	sb	a1,11(a4)
41004770:	00b70523          	sb	a1,10(a4)
41004774:	00b704a3          	sb	a1,9(a4)
41004778:	00b70423          	sb	a1,8(a4)
4100477c:	00b703a3          	sb	a1,7(a4)
41004780:	00b70323          	sb	a1,6(a4)
41004784:	00b702a3          	sb	a1,5(a4)
41004788:	00b70223          	sb	a1,4(a4)
4100478c:	00b701a3          	sb	a1,3(a4)
41004790:	00b70123          	sb	a1,2(a4)
41004794:	00b700a3          	sb	a1,1(a4)
41004798:	00b70023          	sb	a1,0(a4)
4100479c:	00008067          	ret
410047a0:	0ff5f593          	zext.b	a1,a1
410047a4:	00859693          	slli	a3,a1,0x8
410047a8:	00d5e5b3          	or	a1,a1,a3
410047ac:	01059693          	slli	a3,a1,0x10
410047b0:	00d5e5b3          	or	a1,a1,a3
410047b4:	f6dff06f          	j	41004720 <memset+0x18>
410047b8:	00279693          	slli	a3,a5,0x2
410047bc:	00000297          	auipc	t0,0x0
410047c0:	005686b3          	add	a3,a3,t0
410047c4:	00008293          	mv	t0,ra
410047c8:	fa0680e7          	jalr	-96(a3)
410047cc:	00028093          	mv	ra,t0
410047d0:	ff078793          	addi	a5,a5,-16
410047d4:	40f70733          	sub	a4,a4,a5
410047d8:	00f60633          	add	a2,a2,a5
410047dc:	f6c378e3          	bgeu	t1,a2,4100474c <memset+0x44>
410047e0:	f3dff06f          	j	4100471c <memset+0x14>

Disassembly of section .eh_frame:

410047e4 <.eh_frame>:
410047e4:	0010                	0x10
410047e6:	0000                	unimp
410047e8:	0000                	unimp
410047ea:	0000                	unimp
410047ec:	00527a03          	0x527a03
410047f0:	7c01                	lui	s8,0xfffe0
410047f2:	0101                	addi	sp,sp,0
410047f4:	00020d1b          	0x20d1b
410047f8:	0010                	0x10
410047fa:	0000                	unimp
410047fc:	0018                	0x18
410047fe:	0000                	unimp
41004800:	e61c                	fsw	fa5,8(a2)
41004802:	ffff                	0xffff
41004804:	04ec                	addi	a1,sp,588
41004806:	0000                	unimp
41004808:	0000                	unimp
	...

Disassembly of section .data:

41004820 <g_vertex_buffer_data>:
41004820:	0000                	unimp
41004822:	ffff                	0xffff
41004824:	0000                	unimp
41004826:	ffff                	0xffff
41004828:	0000                	unimp
4100482a:	ffff                	0xffff
4100482c:	0000                	unimp
4100482e:	ffff                	0xffff
41004830:	0000                	unimp
41004832:	ffff                	0xffff
41004834:	0000                	unimp
41004836:	0001                	nop
41004838:	0000                	unimp
4100483a:	ffff                	0xffff
4100483c:	0000                	unimp
4100483e:	0001                	nop
41004840:	0000                	unimp
41004842:	0001                	nop
41004844:	0000                	unimp
41004846:	0001                	nop
41004848:	0000                	unimp
4100484a:	0001                	nop
4100484c:	0000                	unimp
4100484e:	ffff                	0xffff
41004850:	0000                	unimp
41004852:	ffff                	0xffff
41004854:	0000                	unimp
41004856:	ffff                	0xffff
41004858:	0000                	unimp
4100485a:	ffff                	0xffff
4100485c:	0000                	unimp
4100485e:	ffff                	0xffff
41004860:	0000                	unimp
41004862:	0001                	nop
41004864:	0000                	unimp
41004866:	ffff                	0xffff
41004868:	0000                	unimp
4100486a:	0001                	nop
4100486c:	0000                	unimp
4100486e:	ffff                	0xffff
41004870:	0000                	unimp
41004872:	0001                	nop
41004874:	0000                	unimp
41004876:	ffff                	0xffff
41004878:	0000                	unimp
4100487a:	ffff                	0xffff
4100487c:	0000                	unimp
4100487e:	ffff                	0xffff
41004880:	0000                	unimp
41004882:	0001                	nop
41004884:	0000                	unimp
41004886:	ffff                	0xffff
41004888:	0000                	unimp
4100488a:	ffff                	0xffff
4100488c:	0000                	unimp
4100488e:	0001                	nop
41004890:	0000                	unimp
41004892:	0001                	nop
41004894:	0000                	unimp
41004896:	ffff                	0xffff
41004898:	0000                	unimp
4100489a:	0001                	nop
4100489c:	0000                	unimp
4100489e:	ffff                	0xffff
410048a0:	0000                	unimp
410048a2:	ffff                	0xffff
410048a4:	0000                	unimp
410048a6:	ffff                	0xffff
410048a8:	0000                	unimp
410048aa:	ffff                	0xffff
410048ac:	0000                	unimp
410048ae:	ffff                	0xffff
410048b0:	0000                	unimp
410048b2:	ffff                	0xffff
410048b4:	0000                	unimp
410048b6:	ffff                	0xffff
410048b8:	0000                	unimp
410048ba:	ffff                	0xffff
410048bc:	0000                	unimp
410048be:	ffff                	0xffff
410048c0:	0000                	unimp
410048c2:	0001                	nop
410048c4:	0000                	unimp
410048c6:	0001                	nop
410048c8:	0000                	unimp
410048ca:	ffff                	0xffff
410048cc:	0000                	unimp
410048ce:	0001                	nop
410048d0:	0000                	unimp
410048d2:	ffff                	0xffff
410048d4:	0000                	unimp
410048d6:	0001                	nop
410048d8:	0000                	unimp
410048da:	ffff                	0xffff
410048dc:	0000                	unimp
410048de:	0001                	nop
410048e0:	0000                	unimp
410048e2:	ffff                	0xffff
410048e4:	0000                	unimp
410048e6:	ffff                	0xffff
410048e8:	0000                	unimp
410048ea:	0001                	nop
410048ec:	0000                	unimp
410048ee:	ffff                	0xffff
410048f0:	0000                	unimp
410048f2:	ffff                	0xffff
410048f4:	0000                	unimp
410048f6:	ffff                	0xffff
410048f8:	0000                	unimp
410048fa:	ffff                	0xffff
410048fc:	0000                	unimp
410048fe:	0001                	nop
41004900:	0000                	unimp
41004902:	0001                	nop
41004904:	0000                	unimp
41004906:	ffff                	0xffff
41004908:	0000                	unimp
4100490a:	ffff                	0xffff
4100490c:	0000                	unimp
4100490e:	0001                	nop
41004910:	0000                	unimp
41004912:	0001                	nop
41004914:	0000                	unimp
41004916:	ffff                	0xffff
41004918:	0000                	unimp
4100491a:	0001                	nop
4100491c:	0000                	unimp
4100491e:	0001                	nop
41004920:	0000                	unimp
41004922:	0001                	nop
41004924:	0000                	unimp
41004926:	0001                	nop
41004928:	0000                	unimp
4100492a:	0001                	nop
4100492c:	0000                	unimp
4100492e:	ffff                	0xffff
41004930:	0000                	unimp
41004932:	ffff                	0xffff
41004934:	0000                	unimp
41004936:	0001                	nop
41004938:	0000                	unimp
4100493a:	0001                	nop
4100493c:	0000                	unimp
4100493e:	ffff                	0xffff
41004940:	0000                	unimp
41004942:	0001                	nop
41004944:	0000                	unimp
41004946:	ffff                	0xffff
41004948:	0000                	unimp
4100494a:	ffff                	0xffff
4100494c:	0000                	unimp
4100494e:	0001                	nop
41004950:	0000                	unimp
41004952:	0001                	nop
41004954:	0000                	unimp
41004956:	0001                	nop
41004958:	0000                	unimp
4100495a:	0001                	nop
4100495c:	0000                	unimp
4100495e:	ffff                	0xffff
41004960:	0000                	unimp
41004962:	0001                	nop
41004964:	0000                	unimp
41004966:	0001                	nop
41004968:	0000                	unimp
4100496a:	0001                	nop
4100496c:	0000                	unimp
4100496e:	0001                	nop
41004970:	0000                	unimp
41004972:	0001                	nop
41004974:	0000                	unimp
41004976:	0001                	nop
41004978:	0000                	unimp
4100497a:	ffff                	0xffff
4100497c:	0000                	unimp
4100497e:	ffff                	0xffff
41004980:	0000                	unimp
41004982:	0001                	nop
41004984:	0000                	unimp
41004986:	ffff                	0xffff
41004988:	0000                	unimp
4100498a:	0001                	nop
4100498c:	0000                	unimp
4100498e:	0001                	nop
41004990:	0000                	unimp
41004992:	0001                	nop
41004994:	0000                	unimp
41004996:	ffff                	0xffff
41004998:	0000                	unimp
4100499a:	0001                	nop
4100499c:	0000                	unimp
4100499e:	ffff                	0xffff
410049a0:	0000                	unimp
410049a2:	ffff                	0xffff
410049a4:	0000                	unimp
410049a6:	0001                	nop
410049a8:	0000                	unimp
410049aa:	0001                	nop
410049ac:	0000                	unimp
410049ae:	0001                	nop
410049b0:	0000                	unimp
410049b2:	0001                	nop
410049b4:	0000                	unimp
410049b6:	0001                	nop
410049b8:	0000                	unimp
410049ba:	ffff                	0xffff
410049bc:	0000                	unimp
410049be:	0001                	nop
410049c0:	0000                	unimp
410049c2:	0001                	nop
410049c4:	0000                	unimp
410049c6:	0001                	nop
410049c8:	0000                	unimp
410049ca:	ffff                	0xffff
410049cc:	0000                	unimp
410049ce:	0001                	nop

410049d0 <fragment_shader.0>:
410049d0:	00000003          	lb	zero,0(zero) # 0 <STACK_SIZE-0x20000>
410049d4:	0004                	0x4
	...

410049d8 <vertex_shader.1>:
410049d8:	0001                	nop
410049da:	0000                	unimp
410049dc:	0002                	c.slli64	zero
	...

410049e0 <angle>:
410049e0:	bfc90fdb          	0xbfc90fdb
410049e4:	002d                	c.nop	11
410049e6:	0000                	unimp
410049e8:	002e                	c.slli	zero,0xb
410049ea:	0000                	unimp
410049ec:	6956                	flw	fs2,84(sp)
410049ee:	7765                	lui	a4,0xffff9
410049f0:	7a2e                	flw	fs4,232(sp)
410049f2:	3d20                	fld	fs0,120(a0)
410049f4:	2820                	fld	fs0,80(s0)
410049f6:	0000                	unimp
410049f8:	2029                	jal	41004a02 <angle+0x22>
410049fa:	3e3d                	jal	41004538 <__fixsfsi+0x64>
410049fc:	2820                	fld	fs0,80(s0)
410049fe:	0000                	unimp
41004a00:	6552                	flw	fa0,20(sp)
41004a02:	646e                	flw	fs0,216(sp)
41004a04:	7265                	lui	tp,0xffff9
41004a06:	6220                	flw	fs0,64(a2)
41004a08:	6765                	lui	a4,0x19
41004a0a:	6e69                	lui	t3,0x1a
41004a0c:	2e2e                	fld	ft8,200(sp)
41004a0e:	0a2e                	slli	s4,s4,0xb
41004a10:	0000                	unimp
41004a12:	0000                	unimp
41004a14:	4e41                	li	t3,16
41004a16:	3a454c47          	fmsub.d	fs8,fa0,ft4,ft7,rmm
41004a1a:	0020                	addi	s0,sp,8
41004a1c:	6552                	flw	fa0,20(sp)
41004a1e:	646e                	flw	fs0,216(sp)
41004a20:	7265                	lui	tp,0xffff9
41004a22:	6520                	flw	fs0,72(a0)
41004a24:	646e                	flw	fs0,216(sp)
41004a26:	2e2e                	fld	ft8,200(sp)
41004a28:	0a2e                	slli	s4,s4,0xb
41004a2a:	0000                	unimp
41004a2c:	726f435b          	0x726f435b
41004a30:	2065                	jal	41004ad8 <angle+0xf8>
41004a32:	0000                	unimp
41004a34:	0a5d                	addi	s4,s4,23
41004a36:	0000                	unimp
41004a38:	5420                	lw	s0,104(s0)
41004a3a:	7361                	lui	t1,0xffff8
41004a3c:	203a306b          	0x203a306b
41004a40:	61657243          	fmadd.s	ft4,fa0,fs6,fa2
41004a44:	6574                	flw	fa3,76(a0)
41004a46:	2164                	fld	fs1,192(a0)
41004a48:	000a                	c.slli	zero,0x2
41004a4a:	0000                	unimp
41004a4c:	6154                	flw	fa3,4(a0)
41004a4e:	3a306b73          	csrrsi	s6,pmpcfg3,0
41004a52:	4e20                	lw	s0,88(a2)
41004a54:	202c776f          	jal	a4,410cbc56 <_end+0x6330a>
41004a58:	6572                	flw	fa0,28(sp)
41004a5a:	7574                	flw	fa3,108(a0)
41004a5c:	6e72                	flw	ft8,28(sp)
41004a5e:	7420                	flw	fs0,104(s0)
41004a60:	656b206f          	j	410b70b6 <_end+0x4e76a>
41004a64:	6e72                	flw	ft8,28(sp)
41004a66:	6c65                	lui	s8,0x19
41004a68:	6d20                	flw	fs0,88(a0)
41004a6a:	0a65646f          	jal	s0,4105ab10 <stack_begin+0x121c4>
41004a6e:	0000                	unimp
41004a70:	5420                	lw	s0,104(s0)
41004a72:	7361                	lui	t1,0xffff8
41004a74:	203a306b          	0x203a306b
41004a78:	7552                	flw	fa0,52(sp)
41004a7a:	6e6e                	flw	ft8,216(sp)
41004a7c:	6e69                	lui	t3,0x1a
41004a7e:	2e2e2e67          	0x2e2e2e67
41004a82:	000a                	c.slli	zero,0x2
41004a84:	5420                	lw	s0,104(s0)
41004a86:	7361                	lui	t1,0xffff8
41004a88:	203a316b          	0x203a316b
41004a8c:	61657243          	fmadd.s	ft4,fa0,fs6,fa2
41004a90:	6574                	flw	fa3,76(a0)
41004a92:	2164                	fld	fs1,192(a0)
41004a94:	000a                	c.slli	zero,0x2
41004a96:	0000                	unimp
41004a98:	6154                	flw	fa3,4(a0)
41004a9a:	3a316b73          	csrrsi	s6,pmpcfg3,2
41004a9e:	4e20                	lw	s0,88(a2)
41004aa0:	202c776f          	jal	a4,410cbca2 <_end+0x63356>
41004aa4:	6572                	flw	fa0,28(sp)
41004aa6:	7574                	flw	fa3,108(a0)
41004aa8:	6e72                	flw	ft8,28(sp)
41004aaa:	7420                	flw	fs0,104(s0)
41004aac:	656b206f          	j	410b7102 <_end+0x4e7b6>
41004ab0:	6e72                	flw	ft8,28(sp)
41004ab2:	6c65                	lui	s8,0x19
41004ab4:	6d20                	flw	fs0,88(a0)
41004ab6:	0a65646f          	jal	s0,4105ab5c <stack_begin+0x12210>
41004aba:	0000                	unimp
41004abc:	5420                	lw	s0,104(s0)
41004abe:	7361                	lui	t1,0xffff8
41004ac0:	203a316b          	0x203a316b
41004ac4:	7552                	flw	fa0,52(sp)
41004ac6:	6e6e                	flw	ft8,216(sp)
41004ac8:	6e69                	lui	t3,0x1a
41004aca:	2e2e2e67          	0x2e2e2e67
41004ace:	000a                	c.slli	zero,0x2
41004ad0:	5420                	lw	s0,104(s0)
41004ad2:	7361                	lui	t1,0xffff8
41004ad4:	203a326b          	0x203a326b
41004ad8:	61657243          	fmadd.s	ft4,fa0,fs6,fa2
41004adc:	6574                	flw	fa3,76(a0)
41004ade:	2164                	fld	fs1,192(a0)
41004ae0:	000a                	c.slli	zero,0x2
41004ae2:	0000                	unimp
41004ae4:	6154                	flw	fa3,4(a0)
41004ae6:	3a326b73          	csrrsi	s6,pmpcfg3,4
41004aea:	4e20                	lw	s0,88(a2)
41004aec:	202c776f          	jal	a4,410cbcee <_end+0x633a2>
41004af0:	6572                	flw	fa0,28(sp)
41004af2:	7574                	flw	fa3,108(a0)
41004af4:	6e72                	flw	ft8,28(sp)
41004af6:	7420                	flw	fs0,104(s0)
41004af8:	656b206f          	j	410b714e <_end+0x4e802>
41004afc:	6e72                	flw	ft8,28(sp)
41004afe:	6c65                	lui	s8,0x19
41004b00:	6d20                	flw	fs0,88(a0)
41004b02:	0a65646f          	jal	s0,4105aba8 <stack_begin+0x1225c>
41004b06:	0000                	unimp
41004b08:	5420                	lw	s0,104(s0)
41004b0a:	7361                	lui	t1,0xffff8
41004b0c:	203a326b          	0x203a326b
41004b10:	7552                	flw	fa0,52(sp)
41004b12:	6e6e                	flw	ft8,216(sp)
41004b14:	6e69                	lui	t3,0x1a
41004b16:	2e2e2e67          	0x2e2e2e67
41004b1a:	000a                	c.slli	zero,0x2
41004b1c:	5420                	lw	s0,104(s0)
41004b1e:	7361                	lui	t1,0xffff8
41004b20:	203a336b          	0x203a336b
41004b24:	61657243          	fmadd.s	ft4,fa0,fs6,fa2
41004b28:	6574                	flw	fa3,76(a0)
41004b2a:	2164                	fld	fs1,192(a0)
41004b2c:	000a                	c.slli	zero,0x2
41004b2e:	0000                	unimp
41004b30:	6154                	flw	fa3,4(a0)
41004b32:	3a336b73          	csrrsi	s6,pmpcfg3,6
41004b36:	4e20                	lw	s0,88(a2)
41004b38:	202c776f          	jal	a4,410cbd3a <_end+0x633ee>
41004b3c:	6572                	flw	fa0,28(sp)
41004b3e:	7574                	flw	fa3,108(a0)
41004b40:	6e72                	flw	ft8,28(sp)
41004b42:	7420                	flw	fs0,104(s0)
41004b44:	656b206f          	j	410b719a <_end+0x4e84e>
41004b48:	6e72                	flw	ft8,28(sp)
41004b4a:	6c65                	lui	s8,0x19
41004b4c:	6d20                	flw	fs0,88(a0)
41004b4e:	0a65646f          	jal	s0,4105abf4 <stack_begin+0x122a8>
41004b52:	0000                	unimp
41004b54:	5420                	lw	s0,104(s0)
41004b56:	7361                	lui	t1,0xffff8
41004b58:	203a336b          	0x203a336b
41004b5c:	7552                	flw	fa0,52(sp)
41004b5e:	6e6e                	flw	ft8,216(sp)
41004b60:	6e69                	lui	t3,0x1a
41004b62:	2e2e2e67          	0x2e2e2e67
41004b66:	000a                	c.slli	zero,0x2
41004b68:	7320534f          	fnmadd.d	ft6,ft0,fs2,fa4,unknown
41004b6c:	6174                	flw	fa3,68(a0)
41004b6e:	7472                	flw	fs0,60(sp)
41004b70:	000a                	c.slli	zero,0x2
41004b72:	0000                	unimp
41004b74:	0000                	unimp
41004b76:	0001                	nop
	...
41004b88:	0000                	unimp
41004b8a:	0001                	nop
	...
41004b9c:	0000                	unimp
41004b9e:	0001                	nop
	...
41004bb0:	0000                	unimp
41004bb2:	0001                	nop

41004bb4 <cordic_atan>:
41004bb4:	3f490fdb          	0x3f490fdb
41004bb8:	6338                	flw	fa4,64(a4)
41004bba:	3eed                	jal	410047b4 <memset+0xac>
41004bbc:	dbb0                	sw	a2,112(a5)
41004bbe:	3e7a                	fld	ft8,440(sp)
41004bc0:	add4                	fsd	fa3,152(a1)
41004bc2:	3dfe                	fld	fs11,504(sp)
41004bc4:	aade                	fsd	fs7,336(sp)
41004bc6:	3d7f                	0x3d7f
41004bc8:	eaac                	fsw	fa1,80(a3)
41004bca:	3cff                	0x3cff
41004bcc:	faac                	fsw	fa1,112(a3)
41004bce:	3c7f                	0x3c7f
41004bd0:	fea8                	fsw	fa0,120(a3)
41004bd2:	3bff                	0x3bff
41004bd4:	ffaa                	fsw	fa0,252(sp)
41004bd6:	3b7f                	0x3b7f
41004bd8:	ffd5                	bnez	a5,41004b94 <angle+0x1b4>
41004bda:	3aff                	0x3aff
41004bdc:	ffd5                	bnez	a5,41004b98 <angle+0x1b8>
41004bde:	3a7f                	0x3a7f
41004be0:	ffd5                	bnez	a5,41004b9c <angle+0x1bc>
41004be2:	39ff                	0x39ff
41004be4:	ffd5                	bnez	a5,41004ba0 <angle+0x1c0>
41004be6:	397f                	0x397f
41004be8:	ffd5                	bnez	a5,41004ba4 <angle+0x1c4>
41004bea:	38ff                	0x38ff
41004bec:	029a                	slli	t0,t0,0x6
41004bee:	3880                	fld	fs0,48(s1)
41004bf0:	029a                	slli	t0,t0,0x6
41004bf2:	3800                	fld	fs0,48(s0)
41004bf4:	029a                	slli	t0,t0,0x6
41004bf6:	3780                	fld	fs0,40(a5)
41004bf8:	029a                	slli	t0,t0,0x6
41004bfa:	3700                	fld	fs0,40(a4)
41004bfc:	af4d                	j	410053ae <task_stack+0x272>
41004bfe:	367f                	0x367f
41004c00:	2d8d                	jal	41005272 <task_stack+0x136>
41004c02:	3600                	fld	fs0,40(a2)
41004c04:	0381                	addi	t2,t2,0
41004c06:	357f                	0x357f
41004c08:	d959                	beqz	a0,41004b9e <angle+0x1be>
41004c0a:	3500                	fld	fs0,40(a0)
41004c0c:	d959                	beqz	a0,41004ba2 <angle+0x1c2>
41004c0e:	3480                	fld	fs0,40(s1)
41004c10:	d959                	beqz	a0,41004ba6 <angle+0x1c6>
41004c12:	3400                	fld	fs0,40(s0)
41004c14:	ee68                	fsw	fa0,92(a2)
41004c16:	ffff                	0xffff
41004c18:	ecb8                	fsw	fa4,88(s1)
41004c1a:	ffff                	0xffff
41004c1c:	eccc                	fsw	fa1,28(s1)
41004c1e:	ffff                	0xffff
41004c20:	ec44                	fsw	fs1,28(s0)
41004c22:	ffff                	0xffff
41004c24:	eccc                	fsw	fa1,28(s1)
41004c26:	ffff                	0xffff
41004c28:	ec6c                	fsw	fa1,92(s0)
41004c2a:	ffff                	0xffff
41004c2c:	eccc                	fsw	fa1,28(s1)
41004c2e:	ffff                	0xffff
41004c30:	ec44                	fsw	fs1,28(s0)
41004c32:	ffff                	0xffff
41004c34:	ecb8                	fsw	fa4,88(s1)
41004c36:	ffff                	0xffff
41004c38:	ecb8                	fsw	fa4,88(s1)
41004c3a:	ffff                	0xffff
41004c3c:	ec6c                	fsw	fa1,92(s0)
41004c3e:	ffff                	0xffff
41004c40:	ec44                	fsw	fs1,28(s0)
41004c42:	ffff                	0xffff
41004c44:	ec50                	fsw	fa2,28(s0)
41004c46:	ffff                	0xffff
41004c48:	ec50                	fsw	fa2,28(s0)
41004c4a:	ffff                	0xffff
41004c4c:	ec50                	fsw	fa2,28(s0)
41004c4e:	ffff                	0xffff
41004c50:	ec6c                	fsw	fa1,92(s0)
41004c52:	ffff                	0xffff
41004c54:	ec78                	fsw	fa4,92(s0)
41004c56:	ffff                	0xffff
41004c58:	ec78                	fsw	fa4,92(s0)
41004c5a:	ffff                	0xffff
41004c5c:	ec8c                	fsw	fa1,24(s1)
41004c5e:	ffff                	0xffff
41004c60:	edc8                	fsw	fa0,28(a1)
41004c62:	ffff                	0xffff
41004c64:	ec8c                	fsw	fa1,24(s1)
41004c66:	ffff                	0xffff
41004c68:	ec2c                	fsw	fa1,88(s0)
41004c6a:	ffff                	0xffff
41004c6c:	ec8c                	fsw	fa1,24(s1)
41004c6e:	ffff                	0xffff
41004c70:	edc8                	fsw	fa0,28(a1)
41004c72:	ffff                	0xffff
41004c74:	ec78                	fsw	fa4,92(s0)
41004c76:	ffff                	0xffff
41004c78:	ec78                	fsw	fa4,92(s0)
41004c7a:	ffff                	0xffff
41004c7c:	ec2c                	fsw	fa1,88(s0)
41004c7e:	ffff                	0xffff
41004c80:	edc8                	fsw	fa0,28(a1)
41004c82:	ffff                	0xffff
41004c84:	ec10                	fsw	fa2,24(s0)
41004c86:	ffff                	0xffff
41004c88:	ec10                	fsw	fa2,24(s0)
41004c8a:	ffff                	0xffff
41004c8c:	ec10                	fsw	fa2,24(s0)
41004c8e:	ffff                	0xffff
41004c90:	ec2c                	fsw	fa1,88(s0)
41004c92:	ffff                	0xffff
41004c94:	f170                	fsw	fa2,100(a0)
41004c96:	ffff                	0xffff
41004c98:	f0ec                	fsw	fa1,100(s1)
41004c9a:	ffff                	0xffff
41004c9c:	f0ec                	fsw	fa1,100(s1)
41004c9e:	ffff                	0xffff
41004ca0:	f0e8                	fsw	fa0,100(s1)
41004ca2:	ffff                	0xffff
41004ca4:	f0f4                	fsw	fa3,100(s1)
41004ca6:	ffff                	0xffff
41004ca8:	f0f4                	fsw	fa3,100(s1)
41004caa:	ffff                	0xffff
41004cac:	f160                	fsw	fs0,100(a0)
41004cae:	ffff                	0xffff
41004cb0:	f0e8                	fsw	fa0,100(s1)
41004cb2:	ffff                	0xffff
41004cb4:	f0f4                	fsw	fa3,100(s1)
41004cb6:	ffff                	0xffff
41004cb8:	f160                	fsw	fs0,100(a0)
41004cba:	ffff                	0xffff
41004cbc:	f0f4                	fsw	fa3,100(s1)
41004cbe:	ffff                	0xffff
41004cc0:	f0e8                	fsw	fa0,100(s1)
41004cc2:	ffff                	0xffff
41004cc4:	f29c                	fsw	fa5,32(a3)
41004cc6:	ffff                	0xffff
41004cc8:	f29c                	fsw	fa5,32(a3)
41004cca:	ffff                	0xffff
41004ccc:	f29c                	fsw	fa5,32(a3)
41004cce:	ffff                	0xffff
41004cd0:	f160                	fsw	fs0,100(a0)
41004cd2:	ffff                	0xffff

41004cd4 <__clz_tab>:
41004cd4:	0100                	addi	s0,sp,128
41004cd6:	0202                	c.slli64	tp
41004cd8:	03030303          	lb	t1,48(t1) # ffff8030 <_end+0xbef8f6e4>
41004cdc:	0404                	addi	s1,sp,512
41004cde:	0404                	addi	s1,sp,512
41004ce0:	0404                	addi	s1,sp,512
41004ce2:	0404                	addi	s1,sp,512
41004ce4:	0505                	addi	a0,a0,1
41004ce6:	0505                	addi	a0,a0,1
41004ce8:	0505                	addi	a0,a0,1
41004cea:	0505                	addi	a0,a0,1
41004cec:	0505                	addi	a0,a0,1
41004cee:	0505                	addi	a0,a0,1
41004cf0:	0505                	addi	a0,a0,1
41004cf2:	0505                	addi	a0,a0,1
41004cf4:	0606                	slli	a2,a2,0x1
41004cf6:	0606                	slli	a2,a2,0x1
41004cf8:	0606                	slli	a2,a2,0x1
41004cfa:	0606                	slli	a2,a2,0x1
41004cfc:	0606                	slli	a2,a2,0x1
41004cfe:	0606                	slli	a2,a2,0x1
41004d00:	0606                	slli	a2,a2,0x1
41004d02:	0606                	slli	a2,a2,0x1
41004d04:	0606                	slli	a2,a2,0x1
41004d06:	0606                	slli	a2,a2,0x1
41004d08:	0606                	slli	a2,a2,0x1
41004d0a:	0606                	slli	a2,a2,0x1
41004d0c:	0606                	slli	a2,a2,0x1
41004d0e:	0606                	slli	a2,a2,0x1
41004d10:	0606                	slli	a2,a2,0x1
41004d12:	0606                	slli	a2,a2,0x1
41004d14:	07070707          	vluxei8.v	v14,(a4),v16
41004d18:	07070707          	vluxei8.v	v14,(a4),v16
41004d1c:	07070707          	vluxei8.v	v14,(a4),v16
41004d20:	07070707          	vluxei8.v	v14,(a4),v16
41004d24:	07070707          	vluxei8.v	v14,(a4),v16
41004d28:	07070707          	vluxei8.v	v14,(a4),v16
41004d2c:	07070707          	vluxei8.v	v14,(a4),v16
41004d30:	07070707          	vluxei8.v	v14,(a4),v16
41004d34:	07070707          	vluxei8.v	v14,(a4),v16
41004d38:	07070707          	vluxei8.v	v14,(a4),v16
41004d3c:	07070707          	vluxei8.v	v14,(a4),v16
41004d40:	07070707          	vluxei8.v	v14,(a4),v16
41004d44:	07070707          	vluxei8.v	v14,(a4),v16
41004d48:	07070707          	vluxei8.v	v14,(a4),v16
41004d4c:	07070707          	vluxei8.v	v14,(a4),v16
41004d50:	07070707          	vluxei8.v	v14,(a4),v16
41004d54:	0808                	addi	a0,sp,16
41004d56:	0808                	addi	a0,sp,16
41004d58:	0808                	addi	a0,sp,16
41004d5a:	0808                	addi	a0,sp,16
41004d5c:	0808                	addi	a0,sp,16
41004d5e:	0808                	addi	a0,sp,16
41004d60:	0808                	addi	a0,sp,16
41004d62:	0808                	addi	a0,sp,16
41004d64:	0808                	addi	a0,sp,16
41004d66:	0808                	addi	a0,sp,16
41004d68:	0808                	addi	a0,sp,16
41004d6a:	0808                	addi	a0,sp,16
41004d6c:	0808                	addi	a0,sp,16
41004d6e:	0808                	addi	a0,sp,16
41004d70:	0808                	addi	a0,sp,16
41004d72:	0808                	addi	a0,sp,16
41004d74:	0808                	addi	a0,sp,16
41004d76:	0808                	addi	a0,sp,16
41004d78:	0808                	addi	a0,sp,16
41004d7a:	0808                	addi	a0,sp,16
41004d7c:	0808                	addi	a0,sp,16
41004d7e:	0808                	addi	a0,sp,16
41004d80:	0808                	addi	a0,sp,16
41004d82:	0808                	addi	a0,sp,16
41004d84:	0808                	addi	a0,sp,16
41004d86:	0808                	addi	a0,sp,16
41004d88:	0808                	addi	a0,sp,16
41004d8a:	0808                	addi	a0,sp,16
41004d8c:	0808                	addi	a0,sp,16
41004d8e:	0808                	addi	a0,sp,16
41004d90:	0808                	addi	a0,sp,16
41004d92:	0808                	addi	a0,sp,16
41004d94:	0808                	addi	a0,sp,16
41004d96:	0808                	addi	a0,sp,16
41004d98:	0808                	addi	a0,sp,16
41004d9a:	0808                	addi	a0,sp,16
41004d9c:	0808                	addi	a0,sp,16
41004d9e:	0808                	addi	a0,sp,16
41004da0:	0808                	addi	a0,sp,16
41004da2:	0808                	addi	a0,sp,16
41004da4:	0808                	addi	a0,sp,16
41004da6:	0808                	addi	a0,sp,16
41004da8:	0808                	addi	a0,sp,16
41004daa:	0808                	addi	a0,sp,16
41004dac:	0808                	addi	a0,sp,16
41004dae:	0808                	addi	a0,sp,16
41004db0:	0808                	addi	a0,sp,16
41004db2:	0808                	addi	a0,sp,16
41004db4:	0808                	addi	a0,sp,16
41004db6:	0808                	addi	a0,sp,16
41004db8:	0808                	addi	a0,sp,16
41004dba:	0808                	addi	a0,sp,16
41004dbc:	0808                	addi	a0,sp,16
41004dbe:	0808                	addi	a0,sp,16
41004dc0:	0808                	addi	a0,sp,16
41004dc2:	0808                	addi	a0,sp,16
41004dc4:	0808                	addi	a0,sp,16
41004dc6:	0808                	addi	a0,sp,16
41004dc8:	0808                	addi	a0,sp,16
41004dca:	0808                	addi	a0,sp,16
41004dcc:	0808                	addi	a0,sp,16
41004dce:	0808                	addi	a0,sp,16
41004dd0:	0808                	addi	a0,sp,16
41004dd2:	0808                	addi	a0,sp,16
41004dd4:	74ee                	flw	fs1,248(sp)
41004dd6:	0fdb3f1b          	0xfdb3f1b
41004dda:	40c9                	li	ra,18
41004ddc:	40490fdb          	0x40490fdb
41004de0:	c0490fdb          	0xc0490fdb
41004de4:	0000                	unimp
41004de6:	3f80                	fld	fs0,56(a5)
41004de8:	0000                	unimp
41004dea:	4780                	lw	s0,8(a5)
41004dec:	0000                	unimp
41004dee:	4334                	lw	a3,64(a4)
41004df0:	3fc90fdb          	0x3fc90fdb
41004df4:	bfc90fdb          	0xbfc90fdb
41004df8:	3bcde32f          	0x3bcde32f
41004dfc:	0000                	unimp
	...

41004e00 <g_gpu_driver>:
	...

41004e0c <ctx_tasks>:
	...

4100503c <cpus>:
	...

4100513c <task_stack>:
	...

4100793c <my_texture>:
	...

41047940 <g_gpu_ring_ram>:
	...

Disassembly of section .sbss:

41048940 <taskTop>:
41048940:	0000                	unimp
	...

41048944 <lock>:
41048944:	0000                	unimp
	...

41048948 <g_gpu_fence_var>:
41048948:	0000                	unimp
	...

Disassembly of section .stack:

4104894c <stack_begin>:
	...

Disassembly of section .comment:

00000000 <.comment>:
   0:	3a434347          	fmsub.d	ft6,ft6,ft4,ft7,rmm
   4:	2820                	fld	fs0,80(s0)
   6:	5078                	lw	a4,100(s0)
   8:	6361                	lui	t1,0x18
   a:	4e47206b          	0x4e47206b
   e:	2055                	jal	b2 <STACK_SIZE-0x1ff4e>
  10:	4952                	lw	s2,20(sp)
  12:	562d4353          	0x562d4353
  16:	4520                	lw	s0,72(a0)
  18:	626d                	lui	tp,0x1b
  1a:	6465                	lui	s0,0x19
  1c:	6564                	flw	fs1,76(a0)
  1e:	2064                	fld	fs1,192(s0)
  20:	20434347          	fmsub.s	ft6,ft6,ft4,ft4,rmm
  24:	3878                	fld	fa4,240(s0)
  26:	5f36                	lw	t5,108(sp)
  28:	3436                	fld	fs0,360(sp)
  2a:	2029                	jal	34 <STACK_SIZE-0x1ffcc>
  2c:	3031                	jal	fffff838 <_end+0xbef96eec>
  2e:	322e                	fld	ft4,232(sp)
  30:	302e                	fld	ft0,232(sp)
	...
