
main.elf:     file format elf32-littleriscv


Disassembly of section .text:

41000000 <_bootstrap>:
41000000:	00020117          	auipc	sp,0x20
41000004:	52810113          	addi	sp,sp,1320 # 41020528 <_end>
41000008:	438000ef          	jal	ra,41000440 <main>

4100000c <spin>:
4100000c:	0000006f          	j	4100000c <spin>

41000010 <_puts>:
41000010:	0100006f          	j	41000020 <_puts+0x10>
41000014:	00150513          	addi	a0,a0,1
41000018:	82000737          	lui	a4,0x82000
4100001c:	00f70023          	sb	a5,0(a4) # 82000000 <_end+0x40fdfad8>
41000020:	00054783          	lbu	a5,0(a0)
41000024:	fe0798e3          	bnez	a5,41000014 <_puts+0x4>
41000028:	00008067          	ret

4100002c <dma_transfer>:
4100002c:	650007b7          	lui	a5,0x65000
41000030:	00c7a783          	lw	a5,12(a5) # 6500000c <_end+0x23fdfae4>
41000034:	fe079ce3          	bnez	a5,4100002c <dma_transfer>
41000038:	650007b7          	lui	a5,0x65000
4100003c:	00a7a023          	sw	a0,0(a5) # 65000000 <_end+0x23fdfad8>
41000040:	00b7a223          	sw	a1,4(a5)
41000044:	00c7a423          	sw	a2,8(a5)
41000048:	00100713          	li	a4,1
4100004c:	00e7a823          	sw	a4,16(a5)
41000050:	00008067          	ret

41000054 <_itoa_10>:
41000054:	fc010113          	addi	sp,sp,-64
41000058:	00050713          	mv	a4,a0
4100005c:	00058513          	mv	a0,a1
41000060:	00012023          	sw	zero,0(sp)
41000064:	00012223          	sw	zero,4(sp)
41000068:	00012423          	sw	zero,8(sp)
4100006c:	00012623          	sw	zero,12(sp)
41000070:	00012823          	sw	zero,16(sp)
41000074:	00012a23          	sw	zero,20(sp)
41000078:	00012c23          	sw	zero,24(sp)
4100007c:	00012e23          	sw	zero,28(sp)
41000080:	02012023          	sw	zero,32(sp)
41000084:	02012223          	sw	zero,36(sp)
41000088:	02012423          	sw	zero,40(sp)
4100008c:	02012623          	sw	zero,44(sp)
41000090:	02012823          	sw	zero,48(sp)
41000094:	02012a23          	sw	zero,52(sp)
41000098:	02012c23          	sw	zero,56(sp)
4100009c:	02012e23          	sw	zero,60(sp)
410000a0:	00000793          	li	a5,0
410000a4:	00010613          	mv	a2,sp
410000a8:	0200006f          	j	410000c8 <_itoa_10+0x74>
410000ac:	00a00593          	li	a1,10
410000b0:	02b766b3          	rem	a3,a4,a1
410000b4:	03068693          	addi	a3,a3,48
410000b8:	00d60023          	sb	a3,0(a2)
410000bc:	02b74733          	div	a4,a4,a1
410000c0:	00178793          	addi	a5,a5,1
410000c4:	00160613          	addi	a2,a2,1
410000c8:	fe0712e3          	bnez	a4,410000ac <_itoa_10+0x58>
410000cc:	fff78793          	addi	a5,a5,-1
410000d0:	01c0006f          	j	410000ec <_itoa_10+0x98>
410000d4:	04010713          	addi	a4,sp,64
410000d8:	00f70733          	add	a4,a4,a5
410000dc:	fc074703          	lbu	a4,-64(a4)
410000e0:	00e50023          	sb	a4,0(a0)
410000e4:	fff78793          	addi	a5,a5,-1
410000e8:	00150513          	addi	a0,a0,1
410000ec:	fe07d4e3          	bgez	a5,410000d4 <_itoa_10+0x80>
410000f0:	00050023          	sb	zero,0(a0)
410000f4:	04010113          	addi	sp,sp,64
410000f8:	00008067          	ret

410000fc <_memset>:
410000fc:	fe010113          	addi	sp,sp,-32
41000100:	00112e23          	sw	ra,28(sp)
41000104:	00b12623          	sw	a1,12(sp)
41000108:	00c10593          	addi	a1,sp,12
4100010c:	f21ff0ef          	jal	ra,4100002c <dma_transfer>
41000110:	01c12083          	lw	ra,28(sp)
41000114:	02010113          	addi	sp,sp,32
41000118:	00008067          	ret

4100011c <_memcpy>:
4100011c:	ff010113          	addi	sp,sp,-16
41000120:	00112623          	sw	ra,12(sp)
41000124:	f09ff0ef          	jal	ra,4100002c <dma_transfer>
41000128:	00c12083          	lw	ra,12(sp)
4100012c:	01010113          	addi	sp,sp,16
41000130:	00008067          	ret

41000134 <pal_write_color>:
41000134:	00259793          	slli	a5,a1,0x2
41000138:	810105b7          	lui	a1,0x81010
4100013c:	00f585b3          	add	a1,a1,a5
41000140:	00a5a023          	sw	a0,0(a1) # 81010000 <_end+0x3ffefad8>
41000144:	00008067          	ret

41000148 <wait_vblank>:
41000148:	810007b7          	lui	a5,0x81000
4100014c:	0007a783          	lw	a5,0(a5) # 81000000 <_end+0x3ffdfad8>
41000150:	0107d793          	srli	a5,a5,0x10
41000154:	fe079ae3          	bnez	a5,41000148 <wait_vblank>
41000158:	00008067          	ret

4100015c <swap_fb>:
4100015c:	ff010113          	addi	sp,sp,-16
41000160:	00112623          	sw	ra,12(sp)
41000164:	fe5ff0ef          	jal	ra,41000148 <wait_vblank>
41000168:	00010637          	lui	a2,0x10
4100016c:	a0060613          	addi	a2,a2,-1536 # fa00 <STACK_SIZE-0x10600>
41000170:	410007b7          	lui	a5,0x41000
41000174:	5207a583          	lw	a1,1312(a5) # 41000520 <fb1>
41000178:	410007b7          	lui	a5,0x41000
4100017c:	5247a503          	lw	a0,1316(a5) # 41000524 <fb0>
41000180:	f9dff0ef          	jal	ra,4100011c <_memcpy>
41000184:	00c12083          	lw	ra,12(sp)
41000188:	01010113          	addi	sp,sp,16
4100018c:	00008067          	ret

41000190 <clear_fb>:
41000190:	ff010113          	addi	sp,sp,-16
41000194:	00112623          	sw	ra,12(sp)
41000198:	00000593          	li	a1,0
4100019c:	f99ff0ef          	jal	ra,41000134 <pal_write_color>
410001a0:	00010637          	lui	a2,0x10
410001a4:	a0060613          	addi	a2,a2,-1536 # fa00 <STACK_SIZE-0x10600>
410001a8:	00000593          	li	a1,0
410001ac:	410007b7          	lui	a5,0x41000
410001b0:	5207a503          	lw	a0,1312(a5) # 41000520 <fb1>
410001b4:	f49ff0ef          	jal	ra,410000fc <_memset>
410001b8:	00c12083          	lw	ra,12(sp)
410001bc:	01010113          	addi	sp,sp,16
410001c0:	00008067          	ret

410001c4 <edge_cross>:
410001c4:	fd010113          	addi	sp,sp,-48
410001c8:	00a12c23          	sw	a0,24(sp)
410001cc:	00b12e23          	sw	a1,28(sp)
410001d0:	00c12823          	sw	a2,16(sp)
410001d4:	00d12a23          	sw	a3,20(sp)
410001d8:	00e12423          	sw	a4,8(sp)
410001dc:	00f12623          	sw	a5,12(sp)
410001e0:	40a60633          	sub	a2,a2,a0
410001e4:	02c12423          	sw	a2,40(sp)
410001e8:	40b686b3          	sub	a3,a3,a1
410001ec:	02d12623          	sw	a3,44(sp)
410001f0:	40a70733          	sub	a4,a4,a0
410001f4:	02e12023          	sw	a4,32(sp)
410001f8:	40b787b3          	sub	a5,a5,a1
410001fc:	02f12223          	sw	a5,36(sp)
41000200:	02f60633          	mul	a2,a2,a5
41000204:	02e686b3          	mul	a3,a3,a4
41000208:	40d60533          	sub	a0,a2,a3
4100020c:	03010113          	addi	sp,sp,48
41000210:	00008067          	ret

41000214 <triangle_fill>:
41000214:	fb010113          	addi	sp,sp,-80
41000218:	04112623          	sw	ra,76(sp)
4100021c:	04812423          	sw	s0,72(sp)
41000220:	04912223          	sw	s1,68(sp)
41000224:	05212023          	sw	s2,64(sp)
41000228:	03312e23          	sw	s3,60(sp)
4100022c:	03412c23          	sw	s4,56(sp)
41000230:	03512a23          	sw	s5,52(sp)
41000234:	03612823          	sw	s6,48(sp)
41000238:	00a12c23          	sw	a0,24(sp)
4100023c:	00b12e23          	sw	a1,28(sp)
41000240:	00c12823          	sw	a2,16(sp)
41000244:	00d12a23          	sw	a3,20(sp)
41000248:	00e12423          	sw	a4,8(sp)
4100024c:	00f12623          	sw	a5,12(sp)
41000250:	00080513          	mv	a0,a6
41000254:	00100593          	li	a1,1
41000258:	eddff0ef          	jal	ra,41000134 <pal_write_color>
4100025c:	00812703          	lw	a4,8(sp)
41000260:	01012603          	lw	a2,16(sp)
41000264:	00070b13          	mv	s6,a4
41000268:	00e65463          	bge	a2,a4,41000270 <triangle_fill+0x5c>
4100026c:	00060b13          	mv	s6,a2
41000270:	01812a03          	lw	s4,24(sp)
41000274:	016a5463          	bge	s4,s6,4100027c <triangle_fill+0x68>
41000278:	000a0b13          	mv	s6,s4
4100027c:	00c12783          	lw	a5,12(sp)
41000280:	01412683          	lw	a3,20(sp)
41000284:	00078493          	mv	s1,a5
41000288:	00f6d463          	bge	a3,a5,41000290 <triangle_fill+0x7c>
4100028c:	00068493          	mv	s1,a3
41000290:	01c12a83          	lw	s5,28(sp)
41000294:	009ad463          	bge	s5,s1,4100029c <triangle_fill+0x88>
41000298:	000a8493          	mv	s1,s5
4100029c:	00c75463          	bge	a4,a2,410002a4 <triangle_fill+0x90>
410002a0:	00060713          	mv	a4,a2
410002a4:	00ea5463          	bge	s4,a4,410002ac <triangle_fill+0x98>
410002a8:	00070a13          	mv	s4,a4
410002ac:	00d7d463          	bge	a5,a3,410002b4 <triangle_fill+0xa0>
410002b0:	00068793          	mv	a5,a3
410002b4:	0afad863          	bge	s5,a5,41000364 <triangle_fill+0x150>
410002b8:	00078a93          	mv	s5,a5
410002bc:	0a80006f          	j	41000364 <triangle_fill+0x150>
410002c0:	00140413          	addi	s0,s0,1
410002c4:	09445e63          	bge	s0,s4,41000360 <triangle_fill+0x14c>
410002c8:	02812423          	sw	s0,40(sp)
410002cc:	02912623          	sw	s1,44(sp)
410002d0:	00040713          	mv	a4,s0
410002d4:	00048793          	mv	a5,s1
410002d8:	00812603          	lw	a2,8(sp)
410002dc:	00c12683          	lw	a3,12(sp)
410002e0:	01012503          	lw	a0,16(sp)
410002e4:	01412583          	lw	a1,20(sp)
410002e8:	eddff0ef          	jal	ra,410001c4 <edge_cross>
410002ec:	00050913          	mv	s2,a0
410002f0:	00040713          	mv	a4,s0
410002f4:	00048793          	mv	a5,s1
410002f8:	01812603          	lw	a2,24(sp)
410002fc:	01c12683          	lw	a3,28(sp)
41000300:	00812503          	lw	a0,8(sp)
41000304:	00c12583          	lw	a1,12(sp)
41000308:	ebdff0ef          	jal	ra,410001c4 <edge_cross>
4100030c:	00050993          	mv	s3,a0
41000310:	00040713          	mv	a4,s0
41000314:	00048793          	mv	a5,s1
41000318:	01012603          	lw	a2,16(sp)
4100031c:	01412683          	lw	a3,20(sp)
41000320:	01812503          	lw	a0,24(sp)
41000324:	01c12583          	lw	a1,28(sp)
41000328:	e9dff0ef          	jal	ra,410001c4 <edge_cross>
4100032c:	f8094ae3          	bltz	s2,410002c0 <triangle_fill+0xac>
41000330:	f809c8e3          	bltz	s3,410002c0 <triangle_fill+0xac>
41000334:	f80546e3          	bltz	a0,410002c0 <triangle_fill+0xac>
41000338:	00249793          	slli	a5,s1,0x2
4100033c:	009787b3          	add	a5,a5,s1
41000340:	00679793          	slli	a5,a5,0x6
41000344:	00f407b3          	add	a5,s0,a5
41000348:	41000737          	lui	a4,0x41000
4100034c:	52072703          	lw	a4,1312(a4) # 41000520 <fb1>
41000350:	00f707b3          	add	a5,a4,a5
41000354:	00100713          	li	a4,1
41000358:	00e78023          	sb	a4,0(a5)
4100035c:	f65ff06f          	j	410002c0 <triangle_fill+0xac>
41000360:	00148493          	addi	s1,s1,1
41000364:	0154d663          	bge	s1,s5,41000370 <triangle_fill+0x15c>
41000368:	000b0413          	mv	s0,s6
4100036c:	f59ff06f          	j	410002c4 <triangle_fill+0xb0>
41000370:	04c12083          	lw	ra,76(sp)
41000374:	04812403          	lw	s0,72(sp)
41000378:	04412483          	lw	s1,68(sp)
4100037c:	04012903          	lw	s2,64(sp)
41000380:	03c12983          	lw	s3,60(sp)
41000384:	03812a03          	lw	s4,56(sp)
41000388:	03412a83          	lw	s5,52(sp)
4100038c:	03012b03          	lw	s6,48(sp)
41000390:	05010113          	addi	sp,sp,80
41000394:	00008067          	ret

41000398 <gpu_upload_verts>:
41000398:	ff010113          	addi	sp,sp,-16
4100039c:	00112623          	sw	ra,12(sp)
410003a0:	00812423          	sw	s0,8(sp)
410003a4:	00058413          	mv	s0,a1
410003a8:	640017b7          	lui	a5,0x64001
410003ac:	0047a783          	lw	a5,4(a5) # 64001004 <_end+0x22fe0adc>
410003b0:	fe079ce3          	bnez	a5,410003a8 <gpu_upload_verts+0x10>
410003b4:	00040613          	mv	a2,s0
410003b8:	00050593          	mv	a1,a0
410003bc:	64000537          	lui	a0,0x64000
410003c0:	d5dff0ef          	jal	ra,4100011c <_memcpy>
410003c4:	00245413          	srli	s0,s0,0x2
410003c8:	640017b7          	lui	a5,0x64001
410003cc:	0087a023          	sw	s0,0(a5) # 64001000 <_end+0x22fe0ad8>
410003d0:	00100713          	li	a4,1
410003d4:	00e7a423          	sw	a4,8(a5)
410003d8:	00c12083          	lw	ra,12(sp)
410003dc:	00812403          	lw	s0,8(sp)
410003e0:	01010113          	addi	sp,sp,16
410003e4:	00008067          	ret

410003e8 <render>:
410003e8:	ff010113          	addi	sp,sp,-16
410003ec:	00112623          	sw	ra,12(sp)
410003f0:	41000537          	lui	a0,0x41000
410003f4:	4fc50513          	addi	a0,a0,1276 # 410004fc <vertices+0x90>
410003f8:	c19ff0ef          	jal	ra,41000010 <_puts>
410003fc:	09000593          	li	a1,144
41000400:	41000537          	lui	a0,0x41000
41000404:	46c50513          	addi	a0,a0,1132 # 4100046c <vertices>
41000408:	f91ff0ef          	jal	ra,41000398 <gpu_upload_verts>
4100040c:	00000793          	li	a5,0
41000410:	0100006f          	j	41000420 <render+0x38>
41000414:	82000737          	lui	a4,0x82000
41000418:	00070023          	sb	zero,0(a4) # 82000000 <_end+0x40fdfad8>
4100041c:	00178793          	addi	a5,a5,1
41000420:	00001737          	lui	a4,0x1
41000424:	fee7c8e3          	blt	a5,a4,41000414 <render+0x2c>
41000428:	41000537          	lui	a0,0x41000
4100042c:	51050513          	addi	a0,a0,1296 # 41000510 <vertices+0xa4>
41000430:	be1ff0ef          	jal	ra,41000010 <_puts>
41000434:	00c12083          	lw	ra,12(sp)
41000438:	01010113          	addi	sp,sp,16
4100043c:	00008067          	ret

41000440 <main>:
41000440:	ff010113          	addi	sp,sp,-16
41000444:	00112623          	sw	ra,12(sp)
41000448:	410007b7          	lui	a5,0x41000
4100044c:	81020737          	lui	a4,0x81020
41000450:	52e7a223          	sw	a4,1316(a5) # 41000524 <fb0>
41000454:	41000737          	lui	a4,0x41000
41000458:	810307b7          	lui	a5,0x81030
4100045c:	a0078793          	addi	a5,a5,-1536 # 8102fa00 <_end+0x4000f4d8>
41000460:	52f72023          	sw	a5,1312(a4) # 41000520 <fb1>
41000464:	f85ff0ef          	jal	ra,410003e8 <render>
41000468:	ffdff06f          	j	41000464 <main+0x24>

Disassembly of section .data:

4100046c <vertices>:
4100046c:	0050                	addi	a2,sp,4
4100046e:	0000                	unimp
41000470:	0028                	addi	a0,sp,8
41000472:	0000                	unimp
41000474:	0078                	addi	a4,sp,12
41000476:	0000                	unimp
41000478:	0050                	addi	a2,sp,4
4100047a:	0000                	unimp
4100047c:	0028                	addi	a0,sp,8
4100047e:	0000                	unimp
41000480:	0050                	addi	a2,sp,4
41000482:	0000                	unimp
41000484:	0028                	addi	a0,sp,8
41000486:	0000                	unimp
41000488:	0050                	addi	a2,sp,4
4100048a:	0000                	unimp
4100048c:	0078                	addi	a4,sp,12
4100048e:	0000                	unimp
41000490:	0050                	addi	a2,sp,4
41000492:	0000                	unimp
41000494:	0050                	addi	a2,sp,4
41000496:	0000                	unimp
41000498:	0078                	addi	a4,sp,12
4100049a:	0000                	unimp
4100049c:	00a0                	addi	s0,sp,72
4100049e:	0000                	unimp
410004a0:	0028                	addi	a0,sp,8
410004a2:	0000                	unimp
410004a4:	00c8                	addi	a0,sp,68
410004a6:	0000                	unimp
410004a8:	0050                	addi	a2,sp,4
410004aa:	0000                	unimp
410004ac:	0078                	addi	a4,sp,12
410004ae:	0000                	unimp
410004b0:	0050                	addi	a2,sp,4
410004b2:	0000                	unimp
410004b4:	0078                	addi	a4,sp,12
410004b6:	0000                	unimp
410004b8:	0050                	addi	a2,sp,4
410004ba:	0000                	unimp
410004bc:	00c8                	addi	a0,sp,68
410004be:	0000                	unimp
410004c0:	0050                	addi	a2,sp,4
410004c2:	0000                	unimp
410004c4:	00a0                	addi	s0,sp,72
410004c6:	0000                	unimp
410004c8:	0078                	addi	a4,sp,12
410004ca:	0000                	unimp
410004cc:	0050                	addi	a2,sp,4
410004ce:	0000                	unimp
410004d0:	0078                	addi	a4,sp,12
410004d2:	0000                	unimp
410004d4:	00a0                	addi	s0,sp,72
410004d6:	0000                	unimp
410004d8:	0078                	addi	a4,sp,12
410004da:	0000                	unimp
410004dc:	0078                	addi	a4,sp,12
410004de:	0000                	unimp
410004e0:	00a0                	addi	s0,sp,72
410004e2:	0000                	unimp
410004e4:	0050                	addi	a2,sp,4
410004e6:	0000                	unimp
410004e8:	0078                	addi	a4,sp,12
410004ea:	0000                	unimp
410004ec:	0078                	addi	a4,sp,12
410004ee:	0000                	unimp
410004f0:	0050                	addi	a2,sp,4
410004f2:	0000                	unimp
410004f4:	00a0                	addi	s0,sp,72
410004f6:	0000                	unimp
410004f8:	0078                	addi	a4,sp,12
410004fa:	0000                	unimp
410004fc:	6552                	flw	fa0,20(sp)
410004fe:	646e                	flw	fs0,216(sp)
41000500:	7265                	lui	tp,0xffff9
41000502:	6220                	flw	fs0,64(a2)
41000504:	6765                	lui	a4,0x19
41000506:	6e69                	lui	t3,0x1a
41000508:	2e2e                	fld	ft8,200(sp)
4100050a:	0a2e                	slli	s4,s4,0xb
4100050c:	0000                	unimp
4100050e:	0000                	unimp
41000510:	6552                	flw	fa0,20(sp)
41000512:	646e                	flw	fs0,216(sp)
41000514:	7265                	lui	tp,0xffff9
41000516:	6520                	flw	fs0,72(a0)
41000518:	646e                	flw	fs0,216(sp)
4100051a:	2e2e                	fld	ft8,200(sp)
4100051c:	0a2e                	slli	s4,s4,0xb
	...

Disassembly of section .sbss:

41000520 <fb1>:
41000520:	0000                	unimp
	...

41000524 <fb0>:
41000524:	0000                	unimp
	...

Disassembly of section .stack:

41000528 <stack_begin>:
	...

Disassembly of section .comment:

00000000 <.comment>:
   0:	3a434347          	fmsub.d	ft6,ft6,ft4,ft7,rmm
   4:	2820                	fld	fs0,80(s0)
   6:	5078                	lw	a4,100(s0)
   8:	6361                	lui	t1,0x18
   a:	4e47206b          	0x4e47206b
   e:	2055                	jal	b2 <STACK_SIZE-0x1ff4e>
  10:	4952                	lw	s2,20(sp)
  12:	562d4353          	0x562d4353
  16:	4520                	lw	s0,72(a0)
  18:	626d                	lui	tp,0x1b
  1a:	6465                	lui	s0,0x19
  1c:	6564                	flw	fs1,76(a0)
  1e:	2064                	fld	fs1,192(s0)
  20:	20434347          	fmsub.s	ft6,ft6,ft4,ft4,rmm
  24:	3878                	fld	fa4,240(s0)
  26:	5f36                	lw	t5,108(sp)
  28:	3436                	fld	fs0,360(sp)
  2a:	2029                	jal	34 <STACK_SIZE-0x1ffcc>
  2c:	3031                	jal	fffff838 <_end+0xbefdf310>
  2e:	322e                	fld	ft4,232(sp)
  30:	302e                	fld	ft0,232(sp)
	...
